
project2.elf:     file format elf32-avr

Sections:
Idx Name          Size      VMA       LMA       File off  Algn
  0 .data         00000002  00800200  00000a40  00000ad4  2**0
                  CONTENTS, ALLOC, LOAD, DATA
  1 .text         00000a40  00000000  00000000  00000094  2**1
                  CONTENTS, ALLOC, LOAD, READONLY, CODE
  2 .bss          000009c9  00800202  00800202  00000ad6  2**0
                  ALLOC
  3 .comment      00000030  00000000  00000000  00000ad6  2**0
                  CONTENTS, READONLY
  4 .debug_aranges 000000e0  00000000  00000000  00000b06  2**0
                  CONTENTS, READONLY, DEBUGGING
  5 .debug_info   00001191  00000000  00000000  00000be6  2**0
                  CONTENTS, READONLY, DEBUGGING
  6 .debug_abbrev 0000056d  00000000  00000000  00001d77  2**0
                  CONTENTS, READONLY, DEBUGGING
  7 .debug_line   00000a65  00000000  00000000  000022e4  2**0
                  CONTENTS, READONLY, DEBUGGING
  8 .debug_frame  000001e4  00000000  00000000  00002d4c  2**2
                  CONTENTS, READONLY, DEBUGGING
  9 .debug_str    00000789  00000000  00000000  00002f30  2**0
                  CONTENTS, READONLY, DEBUGGING
 10 .debug_loc    00000723  00000000  00000000  000036b9  2**0
                  CONTENTS, READONLY, DEBUGGING
 11 .debug_ranges 00000108  00000000  00000000  00003ddc  2**0
                  CONTENTS, READONLY, DEBUGGING

Disassembly of section .text:

00000000 <__vectors>:
   0:	71 c0       	rjmp	.+226    	; 0xe4 <__ctors_end>
   2:	00 00       	nop
   4:	8e c0       	rjmp	.+284    	; 0x122 <__bad_interrupt>
   6:	00 00       	nop
   8:	8c c0       	rjmp	.+280    	; 0x122 <__bad_interrupt>
   a:	00 00       	nop
   c:	8a c0       	rjmp	.+276    	; 0x122 <__bad_interrupt>
   e:	00 00       	nop
  10:	88 c0       	rjmp	.+272    	; 0x122 <__bad_interrupt>
  12:	00 00       	nop
  14:	86 c0       	rjmp	.+268    	; 0x122 <__bad_interrupt>
  16:	00 00       	nop
  18:	84 c0       	rjmp	.+264    	; 0x122 <__bad_interrupt>
  1a:	00 00       	nop
  1c:	82 c0       	rjmp	.+260    	; 0x122 <__bad_interrupt>
  1e:	00 00       	nop
  20:	80 c0       	rjmp	.+256    	; 0x122 <__bad_interrupt>
  22:	00 00       	nop
  24:	7e c0       	rjmp	.+252    	; 0x122 <__bad_interrupt>
  26:	00 00       	nop
  28:	7c c0       	rjmp	.+248    	; 0x122 <__bad_interrupt>
  2a:	00 00       	nop
  2c:	7a c0       	rjmp	.+244    	; 0x122 <__bad_interrupt>
  2e:	00 00       	nop
  30:	78 c0       	rjmp	.+240    	; 0x122 <__bad_interrupt>
  32:	00 00       	nop
  34:	76 c0       	rjmp	.+236    	; 0x122 <__bad_interrupt>
  36:	00 00       	nop
  38:	74 c0       	rjmp	.+232    	; 0x122 <__bad_interrupt>
  3a:	00 00       	nop
  3c:	72 c0       	rjmp	.+228    	; 0x122 <__bad_interrupt>
  3e:	00 00       	nop
  40:	70 c0       	rjmp	.+224    	; 0x122 <__bad_interrupt>
  42:	00 00       	nop
  44:	c9 c1       	rjmp	.+914    	; 0x3d8 <__vector_17>
  46:	00 00       	nop
  48:	6c c0       	rjmp	.+216    	; 0x122 <__bad_interrupt>
  4a:	00 00       	nop
  4c:	6a c0       	rjmp	.+212    	; 0x122 <__bad_interrupt>
  4e:	00 00       	nop
  50:	68 c0       	rjmp	.+208    	; 0x122 <__bad_interrupt>
  52:	00 00       	nop
  54:	66 c0       	rjmp	.+204    	; 0x122 <__bad_interrupt>
  56:	00 00       	nop
  58:	64 c0       	rjmp	.+200    	; 0x122 <__bad_interrupt>
  5a:	00 00       	nop
  5c:	62 c0       	rjmp	.+196    	; 0x122 <__bad_interrupt>
  5e:	00 00       	nop
  60:	60 c0       	rjmp	.+192    	; 0x122 <__bad_interrupt>
  62:	00 00       	nop
  64:	5e c0       	rjmp	.+188    	; 0x122 <__bad_interrupt>
  66:	00 00       	nop
  68:	5c c0       	rjmp	.+184    	; 0x122 <__bad_interrupt>
  6a:	00 00       	nop
  6c:	5a c0       	rjmp	.+180    	; 0x122 <__bad_interrupt>
  6e:	00 00       	nop
  70:	58 c0       	rjmp	.+176    	; 0x122 <__bad_interrupt>
  72:	00 00       	nop
  74:	56 c0       	rjmp	.+172    	; 0x122 <__bad_interrupt>
  76:	00 00       	nop
  78:	54 c0       	rjmp	.+168    	; 0x122 <__bad_interrupt>
  7a:	00 00       	nop
  7c:	52 c0       	rjmp	.+164    	; 0x122 <__bad_interrupt>
  7e:	00 00       	nop
  80:	50 c0       	rjmp	.+160    	; 0x122 <__bad_interrupt>
  82:	00 00       	nop
  84:	4e c0       	rjmp	.+156    	; 0x122 <__bad_interrupt>
  86:	00 00       	nop
  88:	4c c0       	rjmp	.+152    	; 0x122 <__bad_interrupt>
  8a:	00 00       	nop
  8c:	4a c0       	rjmp	.+148    	; 0x122 <__bad_interrupt>
  8e:	00 00       	nop
  90:	48 c0       	rjmp	.+144    	; 0x122 <__bad_interrupt>
  92:	00 00       	nop
  94:	46 c0       	rjmp	.+140    	; 0x122 <__bad_interrupt>
  96:	00 00       	nop
  98:	44 c0       	rjmp	.+136    	; 0x122 <__bad_interrupt>
  9a:	00 00       	nop
  9c:	42 c0       	rjmp	.+132    	; 0x122 <__bad_interrupt>
  9e:	00 00       	nop
  a0:	40 c0       	rjmp	.+128    	; 0x122 <__bad_interrupt>
  a2:	00 00       	nop
  a4:	3e c0       	rjmp	.+124    	; 0x122 <__bad_interrupt>
  a6:	00 00       	nop
  a8:	3c c0       	rjmp	.+120    	; 0x122 <__bad_interrupt>
  aa:	00 00       	nop
  ac:	3a c0       	rjmp	.+116    	; 0x122 <__bad_interrupt>
  ae:	00 00       	nop
  b0:	38 c0       	rjmp	.+112    	; 0x122 <__bad_interrupt>
  b2:	00 00       	nop
  b4:	36 c0       	rjmp	.+108    	; 0x122 <__bad_interrupt>
  b6:	00 00       	nop
  b8:	34 c0       	rjmp	.+104    	; 0x122 <__bad_interrupt>
  ba:	00 00       	nop
  bc:	32 c0       	rjmp	.+100    	; 0x122 <__bad_interrupt>
  be:	00 00       	nop
  c0:	30 c0       	rjmp	.+96     	; 0x122 <__bad_interrupt>
  c2:	00 00       	nop
  c4:	2e c0       	rjmp	.+92     	; 0x122 <__bad_interrupt>
  c6:	00 00       	nop
  c8:	2c c0       	rjmp	.+88     	; 0x122 <__bad_interrupt>
  ca:	00 00       	nop
  cc:	2a c0       	rjmp	.+84     	; 0x122 <__bad_interrupt>
  ce:	00 00       	nop
  d0:	28 c0       	rjmp	.+80     	; 0x122 <__bad_interrupt>
  d2:	00 00       	nop
  d4:	26 c0       	rjmp	.+76     	; 0x122 <__bad_interrupt>
  d6:	00 00       	nop
  d8:	24 c0       	rjmp	.+72     	; 0x122 <__bad_interrupt>
  da:	00 00       	nop
  dc:	22 c0       	rjmp	.+68     	; 0x122 <__bad_interrupt>
  de:	00 00       	nop
  e0:	20 c0       	rjmp	.+64     	; 0x122 <__bad_interrupt>
	...

000000e4 <__ctors_end>:
  e4:	11 24       	eor	r1, r1
  e6:	1f be       	out	0x3f, r1	; 63
  e8:	cf ef       	ldi	r28, 0xFF	; 255
  ea:	d1 e2       	ldi	r29, 0x21	; 33
  ec:	de bf       	out	0x3e, r29	; 62
  ee:	cd bf       	out	0x3d, r28	; 61
  f0:	00 e0       	ldi	r16, 0x00	; 0
  f2:	0c bf       	out	0x3c, r16	; 60

000000f4 <__do_copy_data>:
  f4:	12 e0       	ldi	r17, 0x02	; 2
  f6:	a0 e0       	ldi	r26, 0x00	; 0
  f8:	b2 e0       	ldi	r27, 0x02	; 2
  fa:	e0 e4       	ldi	r30, 0x40	; 64
  fc:	fa e0       	ldi	r31, 0x0A	; 10
  fe:	00 e0       	ldi	r16, 0x00	; 0
 100:	0b bf       	out	0x3b, r16	; 59
 102:	02 c0       	rjmp	.+4      	; 0x108 <__do_copy_data+0x14>
 104:	07 90       	elpm	r0, Z+
 106:	0d 92       	st	X+, r0
 108:	a2 30       	cpi	r26, 0x02	; 2
 10a:	b1 07       	cpc	r27, r17
 10c:	d9 f7       	brne	.-10     	; 0x104 <__do_copy_data+0x10>

0000010e <__do_clear_bss>:
 10e:	2b e0       	ldi	r18, 0x0B	; 11
 110:	a2 e0       	ldi	r26, 0x02	; 2
 112:	b2 e0       	ldi	r27, 0x02	; 2
 114:	01 c0       	rjmp	.+2      	; 0x118 <.do_clear_bss_start>

00000116 <.do_clear_bss_loop>:
 116:	1d 92       	st	X+, r1

00000118 <.do_clear_bss_start>:
 118:	ab 3c       	cpi	r26, 0xCB	; 203
 11a:	b2 07       	cpc	r27, r18
 11c:	e1 f7       	brne	.-8      	; 0x116 <.do_clear_bss_loop>
 11e:	63 d4       	rcall	.+2246   	; 0x9e6 <main>
 120:	8d c4       	rjmp	.+2330   	; 0xa3c <_exit>

00000122 <__bad_interrupt>:
 122:	6e cf       	rjmp	.-292    	; 0x0 <__vectors>

00000124 <_ZL4idlev>:
    arg = cur_task->arg;

    SREG = sreg;

    return arg;
}
 124:	ff cf       	rjmp	.-2      	; 0x124 <_ZL4idlev>

00000126 <_ZL11exit_kernelv>:
 126:	ff 93       	push	r31
 128:	fc b7       	in	r31, 0x3c	; 60
 12a:	ff 93       	push	r31
 12c:	ff b7       	in	r31, 0x3f	; 63
 12e:	f8 94       	cli
 130:	ff 93       	push	r31
 132:	ef 93       	push	r30
 134:	df 93       	push	r29
 136:	cf 93       	push	r28
 138:	bf 93       	push	r27
 13a:	af 93       	push	r26
 13c:	9f 93       	push	r25
 13e:	8f 93       	push	r24
 140:	7f 93       	push	r23
 142:	6f 93       	push	r22
 144:	5f 93       	push	r21
 146:	4f 93       	push	r20
 148:	3f 93       	push	r19
 14a:	2f 93       	push	r18
 14c:	1f 93       	push	r17
 14e:	0f 93       	push	r16
 150:	ff 92       	push	r15
 152:	ef 92       	push	r14
 154:	df 92       	push	r13
 156:	cf 92       	push	r12
 158:	bf 92       	push	r11
 15a:	af 92       	push	r10
 15c:	9f 92       	push	r9
 15e:	8f 92       	push	r8
 160:	7f 92       	push	r7
 162:	6f 92       	push	r6
 164:	5f 92       	push	r5
 166:	4f 92       	push	r4
 168:	3f 92       	push	r3
 16a:	2f 92       	push	r2
 16c:	1f 92       	push	r1
 16e:	0f 92       	push	r0
 170:	8d b7       	in	r24, 0x3d	; 61
 172:	9e b7       	in	r25, 0x3e	; 62
 174:	90 93 c6 0b 	sts	0x0BC6, r25
 178:	80 93 c5 0b 	sts	0x0BC5, r24
 17c:	e0 91 c9 0b 	lds	r30, 0x0BC9
 180:	f0 91 ca 0b 	lds	r31, 0x0BCA
 184:	f3 95       	inc	r31
 186:	80 81       	ld	r24, Z
 188:	91 81       	ldd	r25, Z+1	; 0x01
 18a:	9e bf       	out	0x3e, r25	; 62
 18c:	8d bf       	out	0x3d, r24	; 61
 18e:	0f 90       	pop	r0
 190:	1f 90       	pop	r1
 192:	2f 90       	pop	r2
 194:	3f 90       	pop	r3
 196:	4f 90       	pop	r4
 198:	5f 90       	pop	r5
 19a:	6f 90       	pop	r6
 19c:	7f 90       	pop	r7
 19e:	8f 90       	pop	r8
 1a0:	9f 90       	pop	r9
 1a2:	af 90       	pop	r10
 1a4:	bf 90       	pop	r11
 1a6:	cf 90       	pop	r12
 1a8:	df 90       	pop	r13
 1aa:	ef 90       	pop	r14
 1ac:	ff 90       	pop	r15
 1ae:	0f 91       	pop	r16
 1b0:	1f 91       	pop	r17
 1b2:	2f 91       	pop	r18
 1b4:	3f 91       	pop	r19
 1b6:	4f 91       	pop	r20
 1b8:	5f 91       	pop	r21
 1ba:	6f 91       	pop	r22
 1bc:	7f 91       	pop	r23
 1be:	8f 91       	pop	r24
 1c0:	9f 91       	pop	r25
 1c2:	af 91       	pop	r26
 1c4:	bf 91       	pop	r27
 1c6:	cf 91       	pop	r28
 1c8:	df 91       	pop	r29
 1ca:	ef 91       	pop	r30
 1cc:	ff 91       	pop	r31
 1ce:	ff bf       	out	0x3f, r31	; 63
 1d0:	ff 91       	pop	r31
 1d2:	fc bf       	out	0x3c, r31	; 60
 1d4:	ff 91       	pop	r31
 1d6:	08 95       	ret

000001d8 <_ZL12enter_kernelv>:
 1d8:	ff 93       	push	r31
 1da:	fc b7       	in	r31, 0x3c	; 60
 1dc:	ff 93       	push	r31
 1de:	ff b7       	in	r31, 0x3f	; 63
 1e0:	f8 94       	cli
 1e2:	ff 93       	push	r31
 1e4:	ef 93       	push	r30
 1e6:	df 93       	push	r29
 1e8:	cf 93       	push	r28
 1ea:	bf 93       	push	r27
 1ec:	af 93       	push	r26
 1ee:	9f 93       	push	r25
 1f0:	8f 93       	push	r24
 1f2:	7f 93       	push	r23
 1f4:	6f 93       	push	r22
 1f6:	5f 93       	push	r21
 1f8:	4f 93       	push	r20
 1fa:	3f 93       	push	r19
 1fc:	2f 93       	push	r18
 1fe:	1f 93       	push	r17
 200:	0f 93       	push	r16
 202:	ff 92       	push	r15
 204:	ef 92       	push	r14
 206:	df 92       	push	r13
 208:	cf 92       	push	r12
 20a:	bf 92       	push	r11
 20c:	af 92       	push	r10
 20e:	9f 92       	push	r9
 210:	8f 92       	push	r8
 212:	7f 92       	push	r7
 214:	6f 92       	push	r6
 216:	5f 92       	push	r5
 218:	4f 92       	push	r4
 21a:	3f 92       	push	r3
 21c:	2f 92       	push	r2
 21e:	1f 92       	push	r1
 220:	0f 92       	push	r0
 222:	e0 91 c9 0b 	lds	r30, 0x0BC9
 226:	f0 91 ca 0b 	lds	r31, 0x0BCA
 22a:	8d b7       	in	r24, 0x3d	; 61
 22c:	9e b7       	in	r25, 0x3e	; 62
 22e:	f3 95       	inc	r31
 230:	91 83       	std	Z+1, r25	; 0x01
 232:	80 83       	st	Z, r24
 234:	80 91 c5 0b 	lds	r24, 0x0BC5
 238:	90 91 c6 0b 	lds	r25, 0x0BC6
 23c:	9e bf       	out	0x3e, r25	; 62
 23e:	8d bf       	out	0x3d, r24	; 61
 240:	0f 90       	pop	r0
 242:	1f 90       	pop	r1
 244:	2f 90       	pop	r2
 246:	3f 90       	pop	r3
 248:	4f 90       	pop	r4
 24a:	5f 90       	pop	r5
 24c:	6f 90       	pop	r6
 24e:	7f 90       	pop	r7
 250:	8f 90       	pop	r8
 252:	9f 90       	pop	r9
 254:	af 90       	pop	r10
 256:	bf 90       	pop	r11
 258:	cf 90       	pop	r12
 25a:	df 90       	pop	r13
 25c:	ef 90       	pop	r14
 25e:	ff 90       	pop	r15
 260:	0f 91       	pop	r16
 262:	1f 91       	pop	r17
 264:	2f 91       	pop	r18
 266:	3f 91       	pop	r19
 268:	4f 91       	pop	r20
 26a:	5f 91       	pop	r21
 26c:	6f 91       	pop	r22
 26e:	7f 91       	pop	r23
 270:	8f 91       	pop	r24
 272:	9f 91       	pop	r25
 274:	af 91       	pop	r26
 276:	bf 91       	pop	r27
 278:	cf 91       	pop	r28
 27a:	df 91       	pop	r29
 27c:	ef 91       	pop	r30
 27e:	ff 91       	pop	r31
 280:	ff bf       	out	0x3f, r31	; 63
 282:	ff 91       	pop	r31
 284:	fc bf       	out	0x3c, r31	; 60
 286:	ff 91       	pop	r31
 288:	08 95       	ret

0000028a <_ZL7enqueueP7queue_tP9td_struct>:
 28a:	fc 01       	movw	r30, r24
 28c:	db 01       	movw	r26, r22
 28e:	a4 5f       	subi	r26, 0xF4	; 244
 290:	be 4f       	sbci	r27, 0xFE	; 254
 292:	1d 92       	st	X+, r1
 294:	1c 92       	st	X, r1
 296:	80 81       	ld	r24, Z
 298:	91 81       	ldd	r25, Z+1	; 0x01
 29a:	89 2b       	or	r24, r25
 29c:	19 f4       	brne	.+6      	; 0x2a4 <_ZL7enqueueP7queue_tP9td_struct+0x1a>
 29e:	71 83       	std	Z+1, r23	; 0x01
 2a0:	60 83       	st	Z, r22
 2a2:	06 c0       	rjmp	.+12     	; 0x2b0 <_ZL7enqueueP7queue_tP9td_struct+0x26>
 2a4:	a2 81       	ldd	r26, Z+2	; 0x02
 2a6:	b3 81       	ldd	r27, Z+3	; 0x03
 2a8:	a4 5f       	subi	r26, 0xF4	; 244
 2aa:	be 4f       	sbci	r27, 0xFE	; 254
 2ac:	6d 93       	st	X+, r22
 2ae:	7c 93       	st	X, r23
 2b0:	73 83       	std	Z+3, r23	; 0x03
 2b2:	62 83       	std	Z+2, r22	; 0x02
 2b4:	08 95       	ret

000002b6 <Task_Terminate>:
 2b6:	cf 93       	push	r28
 2b8:	cf b7       	in	r28, 0x3f	; 63
 2ba:	f8 94       	cli
 2bc:	83 e0       	ldi	r24, 0x03	; 3
 2be:	80 93 34 02 	sts	0x0234, r24
 2c2:	8a df       	rcall	.-236    	; 0x1d8 <_ZL12enter_kernelv>
 2c4:	cf bf       	out	0x3f, r28	; 63
 2c6:	cf 91       	pop	r28
 2c8:	08 95       	ret

000002ca <_ZL7dequeueP7queue_t.isra.1>:
 2ca:	dc 01       	movw	r26, r24
 2cc:	8d 91       	ld	r24, X+
 2ce:	9c 91       	ld	r25, X
 2d0:	11 97       	sbiw	r26, 0x01	; 1
 2d2:	00 97       	sbiw	r24, 0x00	; 0
 2d4:	49 f0       	breq	.+18     	; 0x2e8 <_ZL7dequeueP7queue_t.isra.1+0x1e>
 2d6:	fc 01       	movw	r30, r24
 2d8:	e4 5f       	subi	r30, 0xF4	; 244
 2da:	fe 4f       	sbci	r31, 0xFE	; 254
 2dc:	20 81       	ld	r18, Z
 2de:	31 81       	ldd	r19, Z+1	; 0x01
 2e0:	2d 93       	st	X+, r18
 2e2:	3c 93       	st	X, r19
 2e4:	11 82       	std	Z+1, r1	; 0x01
 2e6:	10 82       	st	Z, r1
 2e8:	08 95       	ret

000002ea <_ZL18kernel_create_taskv>:
 2ea:	80 91 23 02 	lds	r24, 0x0223
 2ee:	90 91 24 02 	lds	r25, 0x0224
 2f2:	89 2b       	or	r24, r25
 2f4:	09 f4       	brne	.+2      	; 0x2f8 <_ZL18kernel_create_taskv+0xe>
 2f6:	6a c0       	rjmp	.+212    	; 0x3cc <_ZL18kernel_create_taskv+0xe2>
 2f8:	80 91 2d 02 	lds	r24, 0x022D
 2fc:	88 23       	and	r24, r24
 2fe:	29 f0       	breq	.+10     	; 0x30a <_ZL18kernel_create_taskv+0x20>
 300:	83 e2       	ldi	r24, 0x23	; 35
 302:	92 e0       	ldi	r25, 0x02	; 2
 304:	e2 df       	rcall	.-60     	; 0x2ca <_ZL7dequeueP7queue_t.isra.1>
 306:	bc 01       	movw	r22, r24
 308:	02 c0       	rjmp	.+4      	; 0x30e <_ZL18kernel_create_taskv+0x24>
 30a:	65 eb       	ldi	r22, 0xB5	; 181
 30c:	7a e0       	ldi	r23, 0x0A	; 10
 30e:	fb 01       	movw	r30, r22
 310:	e4 52       	subi	r30, 0x24	; 36
 312:	ff 4f       	sbci	r31, 0xFF	; 255
 314:	10 82       	st	Z, r1
 316:	80 e8       	ldi	r24, 0x80	; 128
 318:	7e 96       	adiw	r30, 0x1e	; 30
 31a:	80 83       	st	Z, r24
 31c:	33 96       	adiw	r30, 0x03	; 3
 31e:	10 82       	st	Z, r1
 320:	80 91 29 02 	lds	r24, 0x0229
 324:	90 91 2a 02 	lds	r25, 0x022A
 328:	31 96       	adiw	r30, 0x01	; 1
 32a:	90 83       	st	Z, r25
 32c:	80 91 29 02 	lds	r24, 0x0229
 330:	90 91 2a 02 	lds	r25, 0x022A
 334:	31 96       	adiw	r30, 0x01	; 1
 336:	80 83       	st	Z, r24
 338:	8b e5       	ldi	r24, 0x5B	; 91
 33a:	91 e0       	ldi	r25, 0x01	; 1
 33c:	33 96       	adiw	r30, 0x03	; 3
 33e:	80 83       	st	Z, r24
 340:	cb 01       	movw	r24, r22
 342:	86 52       	subi	r24, 0x26	; 38
 344:	9f 4f       	sbci	r25, 0xFF	; 255
 346:	32 97       	sbiw	r30, 0x02	; 2
 348:	91 83       	std	Z+1, r25	; 0x01
 34a:	80 83       	st	Z, r24
 34c:	82 e0       	ldi	r24, 0x02	; 2
 34e:	38 96       	adiw	r30, 0x08	; 8
 350:	80 83       	st	Z, r24
 352:	80 91 2b 02 	lds	r24, 0x022B
 356:	90 91 2c 02 	lds	r25, 0x022C
 35a:	31 96       	adiw	r30, 0x01	; 1
 35c:	91 83       	std	Z+1, r25	; 0x01
 35e:	80 83       	st	Z, r24
 360:	80 91 2d 02 	lds	r24, 0x022D
 364:	32 96       	adiw	r30, 0x02	; 2
 366:	80 83       	st	Z, r24
 368:	80 91 2d 02 	lds	r24, 0x022D
 36c:	82 30       	cpi	r24, 0x02	; 2
 36e:	39 f0       	breq	.+14     	; 0x37e <_ZL18kernel_create_taskv+0x94>
 370:	83 30       	cpi	r24, 0x03	; 3
 372:	41 f1       	breq	.+80     	; 0x3c4 <_ZL18kernel_create_taskv+0xda>
 374:	81 30       	cpi	r24, 0x01	; 1
 376:	69 f5       	brne	.+90     	; 0x3d2 <_ZL18kernel_create_taskv+0xe8>
 378:	8f e1       	ldi	r24, 0x1F	; 31
 37a:	92 e0       	ldi	r25, 0x02	; 2
 37c:	25 c0       	rjmp	.+74     	; 0x3c8 <_ZL18kernel_create_taskv+0xde>
 37e:	fb 01       	movw	r30, r22
 380:	e4 5f       	subi	r30, 0xF4	; 244
 382:	fe 4f       	sbci	r31, 0xFE	; 254
 384:	11 82       	std	Z+1, r1	; 0x01
 386:	10 82       	st	Z, r1
 388:	80 91 1b 02 	lds	r24, 0x021B
 38c:	90 91 1c 02 	lds	r25, 0x021C
 390:	32 96       	adiw	r30, 0x02	; 2
 392:	89 2b       	or	r24, r25
 394:	39 f4       	brne	.+14     	; 0x3a4 <_ZL18kernel_create_taskv+0xba>
 396:	11 82       	std	Z+1, r1	; 0x01
 398:	10 82       	st	Z, r1
 39a:	70 93 1c 02 	sts	0x021C, r23
 39e:	60 93 1b 02 	sts	0x021B, r22
 3a2:	0b c0       	rjmp	.+22     	; 0x3ba <_ZL18kernel_create_taskv+0xd0>
 3a4:	80 91 1d 02 	lds	r24, 0x021D
 3a8:	90 91 1e 02 	lds	r25, 0x021E
 3ac:	dc 01       	movw	r26, r24
 3ae:	a4 5f       	subi	r26, 0xF4	; 244
 3b0:	be 4f       	sbci	r27, 0xFE	; 254
 3b2:	6d 93       	st	X+, r22
 3b4:	7c 93       	st	X, r23
 3b6:	91 83       	std	Z+1, r25	; 0x01
 3b8:	80 83       	st	Z, r24
 3ba:	70 93 1e 02 	sts	0x021E, r23
 3be:	60 93 1d 02 	sts	0x021D, r22
 3c2:	07 c0       	rjmp	.+14     	; 0x3d2 <_ZL18kernel_create_taskv+0xe8>
 3c4:	87 e1       	ldi	r24, 0x17	; 23
 3c6:	92 e0       	ldi	r25, 0x02	; 2
 3c8:	60 df       	rcall	.-320    	; 0x28a <_ZL7enqueueP7queue_tP9td_struct>
 3ca:	03 c0       	rjmp	.+6      	; 0x3d2 <_ZL18kernel_create_taskv+0xe8>
 3cc:	80 e0       	ldi	r24, 0x00	; 0
 3ce:	90 e0       	ldi	r25, 0x00	; 0
 3d0:	08 95       	ret
 3d2:	81 e0       	ldi	r24, 0x01	; 1
 3d4:	90 e0       	ldi	r25, 0x00	; 0
 3d6:	08 95       	ret

000003d8 <__vector_17>:
 3d8:	ff 93       	push	r31
 3da:	fc b7       	in	r31, 0x3c	; 60
 3dc:	ff 93       	push	r31
 3de:	ff b7       	in	r31, 0x3f	; 63
 3e0:	f8 94       	cli
 3e2:	f0 68       	ori	r31, 0x80	; 128
 3e4:	ff 93       	push	r31
 3e6:	ef 93       	push	r30
 3e8:	df 93       	push	r29
 3ea:	cf 93       	push	r28
 3ec:	bf 93       	push	r27
 3ee:	af 93       	push	r26
 3f0:	9f 93       	push	r25
 3f2:	8f 93       	push	r24
 3f4:	7f 93       	push	r23
 3f6:	6f 93       	push	r22
 3f8:	5f 93       	push	r21
 3fa:	4f 93       	push	r20
 3fc:	3f 93       	push	r19
 3fe:	2f 93       	push	r18
 400:	1f 93       	push	r17
 402:	0f 93       	push	r16
 404:	ff 92       	push	r15
 406:	ef 92       	push	r14
 408:	df 92       	push	r13
 40a:	cf 92       	push	r12
 40c:	bf 92       	push	r11
 40e:	af 92       	push	r10
 410:	9f 92       	push	r9
 412:	8f 92       	push	r8
 414:	7f 92       	push	r7
 416:	6f 92       	push	r6
 418:	5f 92       	push	r5
 41a:	4f 92       	push	r4
 41c:	3f 92       	push	r3
 41e:	2f 92       	push	r2
 420:	1f 92       	push	r1
 422:	0f 92       	push	r0
 424:	e0 91 c9 0b 	lds	r30, 0x0BC9
 428:	f0 91 ca 0b 	lds	r31, 0x0BCA
 42c:	8d b7       	in	r24, 0x3d	; 61
 42e:	9e b7       	in	r25, 0x3e	; 62
 430:	f3 95       	inc	r31
 432:	91 83       	std	Z+1, r25	; 0x01
 434:	80 83       	st	Z, r24
 436:	80 91 c5 0b 	lds	r24, 0x0BC5
 43a:	90 91 c6 0b 	lds	r25, 0x0BC6
 43e:	9e bf       	out	0x3e, r25	; 62
 440:	8d bf       	out	0x3d, r24	; 61
 442:	81 e0       	ldi	r24, 0x01	; 1
 444:	80 93 34 02 	sts	0x0234, r24
 448:	e8 e8       	ldi	r30, 0x88	; 136
 44a:	f0 e0       	ldi	r31, 0x00	; 0
 44c:	80 81       	ld	r24, Z
 44e:	91 81       	ldd	r25, Z+1	; 0x01
 450:	80 5f       	subi	r24, 0xF0	; 240
 452:	98 4d       	sbci	r25, 0xD8	; 216
 454:	91 83       	std	Z+1, r25	; 0x01
 456:	80 83       	st	Z, r24
 458:	80 91 c5 0b 	lds	r24, 0x0BC5
 45c:	90 91 c6 0b 	lds	r25, 0x0BC6
 460:	9e bf       	out	0x3e, r25	; 62
 462:	8d bf       	out	0x3d, r24	; 61
 464:	0f 90       	pop	r0
 466:	1f 90       	pop	r1
 468:	2f 90       	pop	r2
 46a:	3f 90       	pop	r3
 46c:	4f 90       	pop	r4
 46e:	5f 90       	pop	r5
 470:	6f 90       	pop	r6
 472:	7f 90       	pop	r7
 474:	8f 90       	pop	r8
 476:	9f 90       	pop	r9
 478:	af 90       	pop	r10
 47a:	bf 90       	pop	r11
 47c:	cf 90       	pop	r12
 47e:	df 90       	pop	r13
 480:	ef 90       	pop	r14
 482:	ff 90       	pop	r15
 484:	0f 91       	pop	r16
 486:	1f 91       	pop	r17
 488:	2f 91       	pop	r18
 48a:	3f 91       	pop	r19
 48c:	4f 91       	pop	r20
 48e:	5f 91       	pop	r21
 490:	6f 91       	pop	r22
 492:	7f 91       	pop	r23
 494:	8f 91       	pop	r24
 496:	9f 91       	pop	r25
 498:	af 91       	pop	r26
 49a:	bf 91       	pop	r27
 49c:	cf 91       	pop	r28
 49e:	df 91       	pop	r29
 4a0:	ef 91       	pop	r30
 4a2:	ff 91       	pop	r31
 4a4:	ff bf       	out	0x3f, r31	; 63
 4a6:	ff 91       	pop	r31
 4a8:	fc bf       	out	0x3c, r31	; 60
 4aa:	ff 91       	pop	r31
 4ac:	08 95       	ret

000004ae <OS_Abort>:
 4ae:	f8 94       	cli
 4b0:	80 ef       	ldi	r24, 0xF0	; 240
 4b2:	8a b9       	out	0x0a, r24	; 10
 4b4:	80 91 00 02 	lds	r24, 0x0200
 4b8:	86 30       	cpi	r24, 0x06	; 6
 4ba:	28 f4       	brcc	.+10     	; 0x4c6 <OS_Abort+0x18>
 4bc:	80 91 00 02 	lds	r24, 0x0200
 4c0:	8f 5f       	subi	r24, 0xFF	; 255
 4c2:	30 e6       	ldi	r19, 0x60	; 96
 4c4:	04 c0       	rjmp	.+8      	; 0x4ce <OS_Abort+0x20>
 4c6:	80 91 00 02 	lds	r24, 0x0200
 4ca:	85 50       	subi	r24, 0x05	; 5
 4cc:	30 e9       	ldi	r19, 0x90	; 144
 4ce:	40 ef       	ldi	r20, 0xF0	; 240
 4d0:	4b b9       	out	0x0b, r20	; 11
 4d2:	94 e6       	ldi	r25, 0x64	; 100
 4d4:	2f e7       	ldi	r18, 0x7F	; 127
 4d6:	58 e3       	ldi	r21, 0x38	; 56
 4d8:	61 e0       	ldi	r22, 0x01	; 1
 4da:	21 50       	subi	r18, 0x01	; 1
 4dc:	50 40       	sbci	r21, 0x00	; 0
 4de:	60 40       	sbci	r22, 0x00	; 0
 4e0:	e1 f7       	brne	.-8      	; 0x4da <OS_Abort+0x2c>
 4e2:	00 c0       	rjmp	.+0      	; 0x4e4 <OS_Abort+0x36>
 4e4:	00 00       	nop
 4e6:	91 50       	subi	r25, 0x01	; 1
 4e8:	a9 f7       	brne	.-22     	; 0x4d4 <OS_Abort+0x26>
 4ea:	1b b8       	out	0x0b, r1	; 11
 4ec:	98 e2       	ldi	r25, 0x28	; 40
 4ee:	7f e7       	ldi	r23, 0x7F	; 127
 4f0:	28 e3       	ldi	r18, 0x38	; 56
 4f2:	51 e0       	ldi	r21, 0x01	; 1
 4f4:	71 50       	subi	r23, 0x01	; 1
 4f6:	20 40       	sbci	r18, 0x00	; 0
 4f8:	50 40       	sbci	r21, 0x00	; 0
 4fa:	e1 f7       	brne	.-8      	; 0x4f4 <OS_Abort+0x46>
 4fc:	00 c0       	rjmp	.+0      	; 0x4fe <OS_Abort+0x50>
 4fe:	00 00       	nop
 500:	91 50       	subi	r25, 0x01	; 1
 502:	a9 f7       	brne	.-22     	; 0x4ee <OS_Abort+0x40>
 504:	98 17       	cp	r25, r24
 506:	e1 f0       	breq	.+56     	; 0x540 <OS_Abort+0x92>
 508:	3b b9       	out	0x0b, r19	; 11
 50a:	2a e0       	ldi	r18, 0x0A	; 10
 50c:	6f e7       	ldi	r22, 0x7F	; 127
 50e:	78 e3       	ldi	r23, 0x38	; 56
 510:	51 e0       	ldi	r21, 0x01	; 1
 512:	61 50       	subi	r22, 0x01	; 1
 514:	70 40       	sbci	r23, 0x00	; 0
 516:	50 40       	sbci	r21, 0x00	; 0
 518:	e1 f7       	brne	.-8      	; 0x512 <OS_Abort+0x64>
 51a:	00 c0       	rjmp	.+0      	; 0x51c <OS_Abort+0x6e>
 51c:	00 00       	nop
 51e:	21 50       	subi	r18, 0x01	; 1
 520:	a9 f7       	brne	.-22     	; 0x50c <OS_Abort+0x5e>
 522:	1b b8       	out	0x0b, r1	; 11
 524:	2a e0       	ldi	r18, 0x0A	; 10
 526:	6f e7       	ldi	r22, 0x7F	; 127
 528:	78 e3       	ldi	r23, 0x38	; 56
 52a:	51 e0       	ldi	r21, 0x01	; 1
 52c:	61 50       	subi	r22, 0x01	; 1
 52e:	70 40       	sbci	r23, 0x00	; 0
 530:	50 40       	sbci	r21, 0x00	; 0
 532:	e1 f7       	brne	.-8      	; 0x52c <OS_Abort+0x7e>
 534:	00 c0       	rjmp	.+0      	; 0x536 <OS_Abort+0x88>
 536:	00 00       	nop
 538:	21 50       	subi	r18, 0x01	; 1
 53a:	a9 f7       	brne	.-22     	; 0x526 <OS_Abort+0x78>
 53c:	9f 5f       	subi	r25, 0xFF	; 255
 53e:	e2 cf       	rjmp	.-60     	; 0x504 <OS_Abort+0x56>
 540:	94 e1       	ldi	r25, 0x14	; 20
 542:	6f e7       	ldi	r22, 0x7F	; 127
 544:	78 e3       	ldi	r23, 0x38	; 56
 546:	21 e0       	ldi	r18, 0x01	; 1
 548:	61 50       	subi	r22, 0x01	; 1
 54a:	70 40       	sbci	r23, 0x00	; 0
 54c:	20 40       	sbci	r18, 0x00	; 0
 54e:	e1 f7       	brne	.-8      	; 0x548 <OS_Abort+0x9a>
 550:	00 c0       	rjmp	.+0      	; 0x552 <OS_Abort+0xa4>
 552:	00 00       	nop
 554:	91 50       	subi	r25, 0x01	; 1
 556:	a9 f7       	brne	.-22     	; 0x542 <OS_Abort+0x94>
 558:	bb cf       	rjmp	.-138    	; 0x4d0 <OS_Abort+0x22>

0000055a <_Z7OS_Initv>:
 55a:	cf 93       	push	r28
 55c:	df 93       	push	r29
 55e:	1f 92       	push	r1
 560:	cd b7       	in	r28, 0x3d	; 61
 562:	de b7       	in	r29, 0x3e	; 62
 564:	80 91 81 00 	lds	r24, 0x0081
 568:	82 60       	ori	r24, 0x02	; 2
 56a:	80 93 81 00 	sts	0x0081, r24
 56e:	ed e3       	ldi	r30, 0x3D	; 61
 570:	f3 e0       	ldi	r31, 0x03	; 3
 572:	a2 e0       	ldi	r26, 0x02	; 2
 574:	b2 e0       	ldi	r27, 0x02	; 2
 576:	10 82       	st	Z, r1
 578:	1d 92       	st	X+, r1
 57a:	1d 92       	st	X+, r1
 57c:	cf 01       	movw	r24, r30
 57e:	08 96       	adiw	r24, 0x08	; 8
 580:	95 83       	std	Z+5, r25	; 0x05
 582:	84 83       	std	Z+4, r24	; 0x04
 584:	e0 5f       	subi	r30, 0xF0	; 240
 586:	fe 4f       	sbci	r31, 0xFE	; 254
 588:	8a e0       	ldi	r24, 0x0A	; 10
 58a:	ed 3a       	cpi	r30, 0xAD	; 173
 58c:	f8 07       	cpc	r31, r24
 58e:	99 f7       	brne	.-26     	; 0x576 <_Z7OS_Initv+0x1c>
 590:	10 92 b2 0a 	sts	0x0AB2, r1
 594:	10 92 b1 0a 	sts	0x0AB1, r1
 598:	05 e3       	ldi	r16, 0x35	; 53
 59a:	12 e0       	ldi	r17, 0x02	; 2
 59c:	10 93 24 02 	sts	0x0224, r17
 5a0:	00 93 23 02 	sts	0x0223, r16
 5a4:	85 ea       	ldi	r24, 0xA5	; 165
 5a6:	99 e0       	ldi	r25, 0x09	; 9
 5a8:	90 93 26 02 	sts	0x0226, r25
 5ac:	80 93 25 02 	sts	0x0225, r24
 5b0:	82 e9       	ldi	r24, 0x92	; 146
 5b2:	90 e0       	ldi	r25, 0x00	; 0
 5b4:	90 93 2a 02 	sts	0x022A, r25
 5b8:	80 93 29 02 	sts	0x0229, r24
 5bc:	10 92 2d 02 	sts	0x022D, r1
 5c0:	94 de       	rcall	.-728    	; 0x2ea <_ZL18kernel_create_taskv>
 5c2:	80 e0       	ldi	r24, 0x00	; 0
 5c4:	95 e0       	ldi	r25, 0x05	; 5
 5c6:	90 93 2a 02 	sts	0x022A, r25
 5ca:	80 93 29 02 	sts	0x0229, r24
 5ce:	83 e0       	ldi	r24, 0x03	; 3
 5d0:	80 93 2d 02 	sts	0x022D, r24
 5d4:	8a de       	rcall	.-748    	; 0x2ea <_ZL18kernel_create_taskv>
 5d6:	10 93 ca 0b 	sts	0x0BCA, r17
 5da:	00 93 c9 0b 	sts	0x0BC9, r16
 5de:	81 e0       	ldi	r24, 0x01	; 1
 5e0:	80 93 3d 03 	sts	0x033D, r24
 5e4:	87 e1       	ldi	r24, 0x17	; 23
 5e6:	92 e0       	ldi	r25, 0x02	; 2
 5e8:	70 de       	rcall	.-800    	; 0x2ca <_ZL7dequeueP7queue_t.isra.1>
 5ea:	80 91 6f 00 	lds	r24, 0x006F
 5ee:	82 60       	ori	r24, 0x02	; 2
 5f0:	80 93 6f 00 	sts	0x006F, r24
 5f4:	80 91 84 00 	lds	r24, 0x0084
 5f8:	90 91 85 00 	lds	r25, 0x0085
 5fc:	80 5f       	subi	r24, 0xF0	; 240
 5fe:	98 4d       	sbci	r25, 0xD8	; 216
 600:	90 93 89 00 	sts	0x0089, r25
 604:	80 93 88 00 	sts	0x0088, r24
 608:	82 e0       	ldi	r24, 0x02	; 2
 60a:	86 bb       	out	0x16, r24	; 22
 60c:	ff 24       	eor	r15, r15
 60e:	f3 94       	inc	r15
 610:	05 eb       	ldi	r16, 0xB5	; 181
 612:	1a e0       	ldi	r17, 0x0A	; 10
 614:	82 e0       	ldi	r24, 0x02	; 2
 616:	e8 2e       	mov	r14, r24
 618:	94 e6       	ldi	r25, 0x64	; 100
 61a:	d9 2e       	mov	r13, r25
 61c:	24 e1       	ldi	r18, 0x14	; 20
 61e:	c2 2e       	mov	r12, r18
 620:	40 91 c9 0b 	lds	r20, 0x0BC9
 624:	50 91 ca 0b 	lds	r21, 0x0BCA
 628:	fa 01       	movw	r30, r20
 62a:	e8 5f       	subi	r30, 0xF8	; 248
 62c:	fe 4f       	sbci	r31, 0xFE	; 254
 62e:	80 81       	ld	r24, Z
 630:	81 30       	cpi	r24, 0x01	; 1
 632:	29 f4       	brne	.+10     	; 0x63e <_Z7OS_Initv+0xe4>
 634:	ea e0       	ldi	r30, 0x0A	; 10
 636:	45 3b       	cpi	r20, 0xB5	; 181
 638:	5e 07       	cpc	r21, r30
 63a:	09 f0       	breq	.+2      	; 0x63e <_Z7OS_Initv+0xe4>
 63c:	46 c0       	rjmp	.+140    	; 0x6ca <_Z7OS_Initv+0x170>
 63e:	20 91 17 02 	lds	r18, 0x0217
 642:	30 91 18 02 	lds	r19, 0x0218
 646:	21 15       	cp	r18, r1
 648:	31 05       	cpc	r19, r1
 64a:	19 f0       	breq	.+6      	; 0x652 <_Z7OS_Initv+0xf8>
 64c:	87 e1       	ldi	r24, 0x17	; 23
 64e:	92 e0       	ldi	r25, 0x02	; 2
 650:	2b c0       	rjmp	.+86     	; 0x6a8 <_Z7OS_Initv+0x14e>
 652:	80 91 1b 02 	lds	r24, 0x021B
 656:	90 91 1c 02 	lds	r25, 0x021C
 65a:	00 97       	sbiw	r24, 0x00	; 0
 65c:	e9 f0       	breq	.+58     	; 0x698 <_Z7OS_Initv+0x13e>
 65e:	41 15       	cp	r20, r1
 660:	51 05       	cpc	r21, r1
 662:	71 f0       	breq	.+28     	; 0x680 <_Z7OS_Initv+0x126>
 664:	fc 01       	movw	r30, r24
 666:	e4 5f       	subi	r30, 0xF4	; 244
 668:	fe 4f       	sbci	r31, 0xFE	; 254
 66a:	84 17       	cp	r24, r20
 66c:	95 07       	cpc	r25, r21
 66e:	19 f4       	brne	.+6      	; 0x676 <_Z7OS_Initv+0x11c>
 670:	20 81       	ld	r18, Z
 672:	31 81       	ldd	r19, Z+1	; 0x01
 674:	06 c0       	rjmp	.+12     	; 0x682 <_Z7OS_Initv+0x128>
 676:	80 81       	ld	r24, Z
 678:	91 81       	ldd	r25, Z+1	; 0x01
 67a:	00 97       	sbiw	r24, 0x00	; 0
 67c:	99 f7       	brne	.-26     	; 0x664 <_Z7OS_Initv+0x10a>
 67e:	01 c0       	rjmp	.+2      	; 0x682 <_Z7OS_Initv+0x128>
 680:	9c 01       	movw	r18, r24
 682:	30 93 ca 0b 	sts	0x0BCA, r19
 686:	20 93 c9 0b 	sts	0x0BC9, r18
 68a:	f9 01       	movw	r30, r18
 68c:	ee 5f       	subi	r30, 0xFE	; 254
 68e:	fe 4f       	sbci	r31, 0xFE	; 254
 690:	80 81       	ld	r24, Z
 692:	80 93 16 02 	sts	0x0216, r24
 696:	12 c0       	rjmp	.+36     	; 0x6bc <_Z7OS_Initv+0x162>
 698:	80 91 1f 02 	lds	r24, 0x021F
 69c:	90 91 20 02 	lds	r25, 0x0220
 6a0:	89 2b       	or	r24, r25
 6a2:	41 f0       	breq	.+16     	; 0x6b4 <_Z7OS_Initv+0x15a>
 6a4:	8f e1       	ldi	r24, 0x1F	; 31
 6a6:	92 e0       	ldi	r25, 0x02	; 2
 6a8:	10 de       	rcall	.-992    	; 0x2ca <_ZL7dequeueP7queue_t.isra.1>
 6aa:	90 93 ca 0b 	sts	0x0BCA, r25
 6ae:	80 93 c9 0b 	sts	0x0BC9, r24
 6b2:	04 c0       	rjmp	.+8      	; 0x6bc <_Z7OS_Initv+0x162>
 6b4:	10 93 ca 0b 	sts	0x0BCA, r17
 6b8:	00 93 c9 0b 	sts	0x0BC9, r16
 6bc:	e0 91 c9 0b 	lds	r30, 0x0BC9
 6c0:	f0 91 ca 0b 	lds	r31, 0x0BCA
 6c4:	e8 5f       	subi	r30, 0xF8	; 248
 6c6:	fe 4f       	sbci	r31, 0xFE	; 254
 6c8:	f0 82       	st	Z, r15
 6ca:	2d dd       	rcall	.-1446   	; 0x126 <_ZL11exit_kernelv>
 6cc:	20 91 34 02 	lds	r18, 0x0234
 6d0:	22 30       	cpi	r18, 0x02	; 2
 6d2:	09 f4       	brne	.+2      	; 0x6d6 <_Z7OS_Initv+0x17c>
 6d4:	79 c0       	rjmp	.+242    	; 0x7c8 <_Z7OS_Initv+0x26e>
 6d6:	30 f4       	brcc	.+12     	; 0x6e4 <_Z7OS_Initv+0x18a>
 6d8:	22 23       	and	r18, r18
 6da:	09 f4       	brne	.+2      	; 0x6de <_Z7OS_Initv+0x184>
 6dc:	54 c1       	rjmp	.+680    	; 0x986 <_Z7OS_Initv+0x42c>
 6de:	21 30       	cpi	r18, 0x01	; 1
 6e0:	71 f0       	breq	.+28     	; 0x6fe <_Z7OS_Initv+0x1a4>
 6e2:	4d c1       	rjmp	.+666    	; 0x97e <_Z7OS_Initv+0x424>
 6e4:	a0 90 c9 0b 	lds	r10, 0x0BC9
 6e8:	b0 90 ca 0b 	lds	r11, 0x0BCA
 6ec:	24 30       	cpi	r18, 0x04	; 4
 6ee:	09 f4       	brne	.+2      	; 0x6f2 <_Z7OS_Initv+0x198>
 6f0:	09 c1       	rjmp	.+530    	; 0x904 <_Z7OS_Initv+0x3aa>
 6f2:	08 f4       	brcc	.+2      	; 0x6f6 <_Z7OS_Initv+0x19c>
 6f4:	9a c0       	rjmp	.+308    	; 0x82a <_Z7OS_Initv+0x2d0>
 6f6:	25 30       	cpi	r18, 0x05	; 5
 6f8:	09 f4       	brne	.+2      	; 0x6fc <_Z7OS_Initv+0x1a2>
 6fa:	45 c1       	rjmp	.+650    	; 0x986 <_Z7OS_Initv+0x42c>
 6fc:	40 c1       	rjmp	.+640    	; 0x97e <_Z7OS_Initv+0x424>
 6fe:	80 91 15 02 	lds	r24, 0x0215
 702:	8f 5f       	subi	r24, 0xFF	; 255
 704:	80 93 15 02 	sts	0x0215, r24
 708:	80 91 16 02 	lds	r24, 0x0216
 70c:	81 50       	subi	r24, 0x01	; 1
 70e:	80 93 16 02 	sts	0x0216, r24
 712:	80 91 16 02 	lds	r24, 0x0216
 716:	81 11       	cpse	r24, r1
 718:	2f c0       	rjmp	.+94     	; 0x778 <_Z7OS_Initv+0x21e>
 71a:	20 91 c7 0b 	lds	r18, 0x0BC7
 71e:	30 91 c8 0b 	lds	r19, 0x0BC8
 722:	21 15       	cp	r18, r1
 724:	31 05       	cpc	r19, r1
 726:	29 f4       	brne	.+10     	; 0x732 <_Z7OS_Initv+0x1d8>
 728:	10 92 c8 0b 	sts	0x0BC8, r1
 72c:	10 92 c7 0b 	sts	0x0BC7, r1
 730:	1b c0       	rjmp	.+54     	; 0x768 <_Z7OS_Initv+0x20e>
 732:	80 91 15 02 	lds	r24, 0x0215
 736:	6c 2d       	mov	r22, r12
 738:	75 d1       	rcall	.+746    	; 0xa24 <__udivmodqi4>
 73a:	89 2f       	mov	r24, r25
 73c:	90 e0       	ldi	r25, 0x00	; 0
 73e:	f9 01       	movw	r30, r18
 740:	ea 5f       	subi	r30, 0xFA	; 250
 742:	fe 4f       	sbci	r31, 0xFE	; 254
 744:	40 81       	ld	r20, Z
 746:	51 81       	ldd	r21, Z+1	; 0x01
 748:	48 17       	cp	r20, r24
 74a:	59 07       	cpc	r21, r25
 74c:	69 f4       	brne	.+26     	; 0x768 <_Z7OS_Initv+0x20e>
 74e:	30 93 ca 0b 	sts	0x0BCA, r19
 752:	20 93 c9 0b 	sts	0x0BC9, r18
 756:	10 92 c8 0b 	sts	0x0BC8, r1
 75a:	10 92 c7 0b 	sts	0x0BC7, r1
 75e:	34 97       	sbiw	r30, 0x04	; 4
 760:	80 81       	ld	r24, Z
 762:	80 93 16 02 	sts	0x0216, r24
 766:	1e c0       	rjmp	.+60     	; 0x7a4 <_Z7OS_Initv+0x24a>
 768:	8f e1       	ldi	r24, 0x1F	; 31
 76a:	92 e0       	ldi	r25, 0x02	; 2
 76c:	ae dd       	rcall	.-1188   	; 0x2ca <_ZL7dequeueP7queue_t.isra.1>
 76e:	90 93 ca 0b 	sts	0x0BCA, r25
 772:	80 93 c9 0b 	sts	0x0BC9, r24
 776:	16 c0       	rjmp	.+44     	; 0x7a4 <_Z7OS_Initv+0x24a>
 778:	90 91 16 02 	lds	r25, 0x0216
 77c:	80 91 15 02 	lds	r24, 0x0215
 780:	e0 91 c9 0b 	lds	r30, 0x0BC9
 784:	f0 91 ca 0b 	lds	r31, 0x0BCA
 788:	ea 5f       	subi	r30, 0xFA	; 250
 78a:	fe 4f       	sbci	r31, 0xFE	; 254
 78c:	20 81       	ld	r18, Z
 78e:	31 81       	ldd	r19, Z+1	; 0x01
 790:	29 0f       	add	r18, r25
 792:	31 1d       	adc	r19, r1
 794:	6d 2d       	mov	r22, r13
 796:	46 d1       	rcall	.+652    	; 0xa24 <__udivmodqi4>
 798:	89 2f       	mov	r24, r25
 79a:	90 e0       	ldi	r25, 0x00	; 0
 79c:	82 17       	cp	r24, r18
 79e:	93 07       	cpc	r25, r19
 7a0:	08 f4       	brcc	.+2      	; 0x7a4 <_Z7OS_Initv+0x24a>
 7a2:	f0 c0       	rjmp	.+480    	; 0x984 <_Z7OS_Initv+0x42a>
 7a4:	60 91 c9 0b 	lds	r22, 0x0BC9
 7a8:	70 91 ca 0b 	lds	r23, 0x0BCA
 7ac:	fb 01       	movw	r30, r22
 7ae:	e5 5f       	subi	r30, 0xF5	; 245
 7b0:	fe 4f       	sbci	r31, 0xFE	; 254
 7b2:	80 81       	ld	r24, Z
 7b4:	81 30       	cpi	r24, 0x01	; 1
 7b6:	09 f0       	breq	.+2      	; 0x7ba <_Z7OS_Initv+0x260>
 7b8:	e6 c0       	rjmp	.+460    	; 0x986 <_Z7OS_Initv+0x42c>
 7ba:	33 97       	sbiw	r30, 0x03	; 3
 7bc:	80 81       	ld	r24, Z
 7be:	81 30       	cpi	r24, 0x01	; 1
 7c0:	09 f0       	breq	.+2      	; 0x7c4 <_Z7OS_Initv+0x26a>
 7c2:	e1 c0       	rjmp	.+450    	; 0x986 <_Z7OS_Initv+0x42c>
 7c4:	e0 82       	st	Z, r14
 7c6:	2e c0       	rjmp	.+92     	; 0x824 <_Z7OS_Initv+0x2ca>
 7c8:	29 83       	std	Y+1, r18	; 0x01
 7ca:	8f dd       	rcall	.-1250   	; 0x2ea <_ZL18kernel_create_taskv>
 7cc:	90 93 28 02 	sts	0x0228, r25
 7d0:	80 93 27 02 	sts	0x0227, r24
 7d4:	80 91 27 02 	lds	r24, 0x0227
 7d8:	90 91 28 02 	lds	r25, 0x0228
 7dc:	29 81       	ldd	r18, Y+1	; 0x01
 7de:	89 2b       	or	r24, r25
 7e0:	09 f4       	brne	.+2      	; 0x7e4 <_Z7OS_Initv+0x28a>
 7e2:	d1 c0       	rjmp	.+418    	; 0x986 <_Z7OS_Initv+0x42c>
 7e4:	30 91 2d 02 	lds	r19, 0x022D
 7e8:	60 91 c9 0b 	lds	r22, 0x0BC9
 7ec:	70 91 ca 0b 	lds	r23, 0x0BCA
 7f0:	33 30       	cpi	r19, 0x03	; 3
 7f2:	39 f4       	brne	.+14     	; 0x802 <_Z7OS_Initv+0x2a8>
 7f4:	fb 01       	movw	r30, r22
 7f6:	e5 5f       	subi	r30, 0xF5	; 245
 7f8:	fe 4f       	sbci	r31, 0xFE	; 254
 7fa:	30 81       	ld	r19, Z
 7fc:	33 30       	cpi	r19, 0x03	; 3
 7fe:	09 f0       	breq	.+2      	; 0x802 <_Z7OS_Initv+0x2a8>
 800:	c5 c0       	rjmp	.+394    	; 0x98c <_Z7OS_Initv+0x432>
 802:	fb 01       	movw	r30, r22
 804:	e5 5f       	subi	r30, 0xF5	; 245
 806:	fe 4f       	sbci	r31, 0xFE	; 254
 808:	20 81       	ld	r18, Z
 80a:	21 30       	cpi	r18, 0x01	; 1
 80c:	09 f0       	breq	.+2      	; 0x810 <_Z7OS_Initv+0x2b6>
 80e:	bb c0       	rjmp	.+374    	; 0x986 <_Z7OS_Initv+0x42c>
 810:	20 91 2d 02 	lds	r18, 0x022D
 814:	33 97       	sbiw	r30, 0x03	; 3
 816:	22 30       	cpi	r18, 0x02	; 2
 818:	09 f4       	brne	.+2      	; 0x81c <_Z7OS_Initv+0x2c2>
 81a:	20 83       	st	Z, r18
 81c:	20 81       	ld	r18, Z
 81e:	22 30       	cpi	r18, 0x02	; 2
 820:	09 f0       	breq	.+2      	; 0x824 <_Z7OS_Initv+0x2ca>
 822:	b1 c0       	rjmp	.+354    	; 0x986 <_Z7OS_Initv+0x42c>
 824:	8f e1       	ldi	r24, 0x1F	; 31
 826:	92 e0       	ldi	r25, 0x02	; 2
 828:	6b c0       	rjmp	.+214    	; 0x900 <_Z7OS_Initv+0x3a6>
 82a:	f5 eb       	ldi	r31, 0xB5	; 181
 82c:	af 16       	cp	r10, r31
 82e:	fa e0       	ldi	r31, 0x0A	; 10
 830:	bf 06       	cpc	r11, r31
 832:	09 f4       	brne	.+2      	; 0x836 <_Z7OS_Initv+0x2dc>
 834:	a8 c0       	rjmp	.+336    	; 0x986 <_Z7OS_Initv+0x42c>
 836:	f5 01       	movw	r30, r10
 838:	e8 5f       	subi	r30, 0xF8	; 248
 83a:	fe 4f       	sbci	r31, 0xFE	; 254
 83c:	10 82       	st	Z, r1
 83e:	33 96       	adiw	r30, 0x03	; 3
 840:	80 81       	ld	r24, Z
 842:	82 30       	cpi	r24, 0x02	; 2
 844:	09 f0       	breq	.+2      	; 0x848 <_Z7OS_Initv+0x2ee>
 846:	59 c0       	rjmp	.+178    	; 0x8fa <_Z7OS_Initv+0x3a0>
 848:	80 91 1b 02 	lds	r24, 0x021B
 84c:	90 91 1c 02 	lds	r25, 0x021C
 850:	8a 15       	cp	r24, r10
 852:	9b 05       	cpc	r25, r11
 854:	71 f4       	brne	.+28     	; 0x872 <_Z7OS_Initv+0x318>
 856:	31 96       	adiw	r30, 0x01	; 1
 858:	20 81       	ld	r18, Z
 85a:	31 81       	ldd	r19, Z+1	; 0x01
 85c:	21 15       	cp	r18, r1
 85e:	31 05       	cpc	r19, r1
 860:	41 f0       	breq	.+16     	; 0x872 <_Z7OS_Initv+0x318>
 862:	30 93 1c 02 	sts	0x021C, r19
 866:	20 93 1b 02 	sts	0x021B, r18
 86a:	f9 01       	movw	r30, r18
 86c:	e2 5f       	subi	r30, 0xF2	; 242
 86e:	fe 4f       	sbci	r31, 0xFE	; 254
 870:	16 c0       	rjmp	.+44     	; 0x89e <_Z7OS_Initv+0x344>
 872:	20 91 1d 02 	lds	r18, 0x021D
 876:	30 91 1e 02 	lds	r19, 0x021E
 87a:	2a 15       	cp	r18, r10
 87c:	3b 05       	cpc	r19, r11
 87e:	19 f5       	brne	.+70     	; 0x8c6 <_Z7OS_Initv+0x36c>
 880:	f5 01       	movw	r30, r10
 882:	e2 5f       	subi	r30, 0xF2	; 242
 884:	fe 4f       	sbci	r31, 0xFE	; 254
 886:	20 81       	ld	r18, Z
 888:	31 81       	ldd	r19, Z+1	; 0x01
 88a:	21 15       	cp	r18, r1
 88c:	31 05       	cpc	r19, r1
 88e:	51 f0       	breq	.+20     	; 0x8a4 <_Z7OS_Initv+0x34a>
 890:	30 93 1e 02 	sts	0x021E, r19
 894:	20 93 1d 02 	sts	0x021D, r18
 898:	f9 01       	movw	r30, r18
 89a:	e4 5f       	subi	r30, 0xF4	; 244
 89c:	fe 4f       	sbci	r31, 0xFE	; 254
 89e:	11 82       	std	Z+1, r1	; 0x01
 8a0:	10 82       	st	Z, r1
 8a2:	2b c0       	rjmp	.+86     	; 0x8fa <_Z7OS_Initv+0x3a0>
 8a4:	8a 15       	cp	r24, r10
 8a6:	9b 05       	cpc	r25, r11
 8a8:	71 f4       	brne	.+28     	; 0x8c6 <_Z7OS_Initv+0x36c>
 8aa:	10 92 1e 02 	sts	0x021E, r1
 8ae:	10 92 1d 02 	sts	0x021D, r1
 8b2:	10 92 1c 02 	sts	0x021C, r1
 8b6:	10 92 1b 02 	sts	0x021B, r1
 8ba:	1f c0       	rjmp	.+62     	; 0x8fa <_Z7OS_Initv+0x3a0>
 8bc:	fc 01       	movw	r30, r24
 8be:	e4 5f       	subi	r30, 0xF4	; 244
 8c0:	fe 4f       	sbci	r31, 0xFE	; 254
 8c2:	80 81       	ld	r24, Z
 8c4:	91 81       	ldd	r25, Z+1	; 0x01
 8c6:	00 97       	sbiw	r24, 0x00	; 0
 8c8:	c1 f0       	breq	.+48     	; 0x8fa <_Z7OS_Initv+0x3a0>
 8ca:	8a 15       	cp	r24, r10
 8cc:	9b 05       	cpc	r25, r11
 8ce:	b1 f7       	brne	.-20     	; 0x8bc <_Z7OS_Initv+0x362>
 8d0:	f5 01       	movw	r30, r10
 8d2:	e2 5f       	subi	r30, 0xF2	; 242
 8d4:	fe 4f       	sbci	r31, 0xFE	; 254
 8d6:	80 81       	ld	r24, Z
 8d8:	91 81       	ldd	r25, Z+1	; 0x01
 8da:	fc 01       	movw	r30, r24
 8dc:	e4 5f       	subi	r30, 0xF4	; 244
 8de:	fe 4f       	sbci	r31, 0xFE	; 254
 8e0:	a0 81       	ld	r26, Z
 8e2:	b1 81       	ldd	r27, Z+1	; 0x01
 8e4:	a4 5f       	subi	r26, 0xF4	; 244
 8e6:	be 4f       	sbci	r27, 0xFE	; 254
 8e8:	2d 91       	ld	r18, X+
 8ea:	3c 91       	ld	r19, X
 8ec:	31 83       	std	Z+1, r19	; 0x01
 8ee:	20 83       	st	Z, r18
 8f0:	f9 01       	movw	r30, r18
 8f2:	e2 5f       	subi	r30, 0xF2	; 242
 8f4:	fe 4f       	sbci	r31, 0xFE	; 254
 8f6:	91 83       	std	Z+1, r25	; 0x01
 8f8:	80 83       	st	Z, r24
 8fa:	b5 01       	movw	r22, r10
 8fc:	83 e2       	ldi	r24, 0x23	; 35
 8fe:	92 e0       	ldi	r25, 0x02	; 2
 900:	c4 dc       	rcall	.-1656   	; 0x28a <_ZL7enqueueP7queue_tP9td_struct>
 902:	41 c0       	rjmp	.+130    	; 0x986 <_Z7OS_Initv+0x42c>
 904:	f5 01       	movw	r30, r10
 906:	e5 5f       	subi	r30, 0xF5	; 245
 908:	fe 4f       	sbci	r31, 0xFE	; 254
 90a:	80 81       	ld	r24, Z
 90c:	82 30       	cpi	r24, 0x02	; 2
 90e:	61 f0       	breq	.+24     	; 0x928 <_Z7OS_Initv+0x3ce>
 910:	83 30       	cpi	r24, 0x03	; 3
 912:	31 f0       	breq	.+12     	; 0x920 <_Z7OS_Initv+0x3c6>
 914:	81 30       	cpi	r24, 0x01	; 1
 916:	71 f5       	brne	.+92     	; 0x974 <_Z7OS_Initv+0x41a>
 918:	b5 01       	movw	r22, r10
 91a:	8f e1       	ldi	r24, 0x1F	; 31
 91c:	92 e0       	ldi	r25, 0x02	; 2
 91e:	29 c0       	rjmp	.+82     	; 0x972 <_Z7OS_Initv+0x418>
 920:	b5 01       	movw	r22, r10
 922:	87 e1       	ldi	r24, 0x17	; 23
 924:	92 e0       	ldi	r25, 0x02	; 2
 926:	25 c0       	rjmp	.+74     	; 0x972 <_Z7OS_Initv+0x418>
 928:	f0 92 14 02 	sts	0x0214, r15
 92c:	f5 01       	movw	r30, r10
 92e:	e4 5f       	subi	r30, 0xF4	; 244
 930:	fe 4f       	sbci	r31, 0xFE	; 254
 932:	11 82       	std	Z+1, r1	; 0x01
 934:	10 82       	st	Z, r1
 936:	80 91 1b 02 	lds	r24, 0x021B
 93a:	90 91 1c 02 	lds	r25, 0x021C
 93e:	32 96       	adiw	r30, 0x02	; 2
 940:	89 2b       	or	r24, r25
 942:	39 f4       	brne	.+14     	; 0x952 <_Z7OS_Initv+0x3f8>
 944:	11 82       	std	Z+1, r1	; 0x01
 946:	10 82       	st	Z, r1
 948:	b0 92 1c 02 	sts	0x021C, r11
 94c:	a0 92 1b 02 	sts	0x021B, r10
 950:	0b c0       	rjmp	.+22     	; 0x968 <_Z7OS_Initv+0x40e>
 952:	80 91 1d 02 	lds	r24, 0x021D
 956:	90 91 1e 02 	lds	r25, 0x021E
 95a:	dc 01       	movw	r26, r24
 95c:	a4 5f       	subi	r26, 0xF4	; 244
 95e:	be 4f       	sbci	r27, 0xFE	; 254
 960:	ad 92       	st	X+, r10
 962:	bc 92       	st	X, r11
 964:	91 83       	std	Z+1, r25	; 0x01
 966:	80 83       	st	Z, r24
 968:	b0 92 1e 02 	sts	0x021E, r11
 96c:	a0 92 1d 02 	sts	0x021D, r10
 970:	01 c0       	rjmp	.+2      	; 0x974 <_Z7OS_Initv+0x41a>
 972:	8b dc       	rcall	.-1770   	; 0x28a <_ZL7enqueueP7queue_tP9td_struct>
 974:	f5 01       	movw	r30, r10
 976:	e8 5f       	subi	r30, 0xF8	; 248
 978:	fe 4f       	sbci	r31, 0xFE	; 254
 97a:	e0 82       	st	Z, r14
 97c:	04 c0       	rjmp	.+8      	; 0x986 <_Z7OS_Initv+0x42c>
 97e:	8f ef       	ldi	r24, 0xFF	; 255
 980:	80 93 00 02 	sts	0x0200, r24
 984:	94 dd       	rcall	.-1240   	; 0x4ae <OS_Abort>
 986:	10 92 34 02 	sts	0x0234, r1
 98a:	4a ce       	rjmp	.-876    	; 0x620 <_Z7OS_Initv+0xc6>
 98c:	fb 01       	movw	r30, r22
 98e:	e8 5f       	subi	r30, 0xF8	; 248
 990:	fe 4f       	sbci	r31, 0xFE	; 254
 992:	20 83       	st	Z, r18
 994:	36 cf       	rjmp	.-404    	; 0x802 <_Z7OS_Initv+0x2a8>

00000996 <Task_Create_Periodic>:
 996:	0f 93       	push	r16
 998:	1f 93       	push	r17
 99a:	cf 93       	push	r28
 99c:	cf b7       	in	r28, 0x3f	; 63
 99e:	f8 94       	cli
 9a0:	90 93 2a 02 	sts	0x022A, r25
 9a4:	80 93 29 02 	sts	0x0229, r24
 9a8:	70 93 2c 02 	sts	0x022C, r23
 9ac:	60 93 2b 02 	sts	0x022B, r22
 9b0:	82 e0       	ldi	r24, 0x02	; 2
 9b2:	80 93 2d 02 	sts	0x022D, r24
 9b6:	50 93 2f 02 	sts	0x022F, r21
 9ba:	40 93 2e 02 	sts	0x022E, r20
 9be:	30 93 31 02 	sts	0x0231, r19
 9c2:	20 93 30 02 	sts	0x0230, r18
 9c6:	10 93 33 02 	sts	0x0233, r17
 9ca:	00 93 32 02 	sts	0x0232, r16
 9ce:	80 93 34 02 	sts	0x0234, r24
 9d2:	02 dc       	rcall	.-2044   	; 0x1d8 <_ZL12enter_kernelv>
 9d4:	80 91 27 02 	lds	r24, 0x0227
 9d8:	90 91 28 02 	lds	r25, 0x0228
 9dc:	cf bf       	out	0x3f, r28	; 63
 9de:	cf 91       	pop	r28
 9e0:	1f 91       	pop	r17
 9e2:	0f 91       	pop	r16
 9e4:	08 95       	ret

000009e6 <main>:
/**
 * Runtime entry point into the program; just start the RTOS.  The application layer must define r_main() for its entry point.
 */
int main()
{
	OS_Init();
 9e6:	b9 dd       	rcall	.-1166   	; 0x55a <_Z7OS_Initv>

000009e8 <_Z1pv>:
{
	DDRB = 1 << PB7;
	for(;;){
		_delay_ms(5000);
		PORTB ^= 1 << PB7;
		Task_Next();
 9e8:	80 e8       	ldi	r24, 0x80	; 128
 9ea:	84 b9       	out	0x04, r24	; 4
 9ec:	2f ef       	ldi	r18, 0xFF	; 255
 9ee:	89 e6       	ldi	r24, 0x69	; 105
 9f0:	98 e1       	ldi	r25, 0x18	; 24
 9f2:	21 50       	subi	r18, 0x01	; 1
 9f4:	80 40       	sbci	r24, 0x00	; 0
 9f6:	90 40       	sbci	r25, 0x00	; 0
 9f8:	e1 f7       	brne	.-8      	; 0x9f2 <_Z1pv+0xa>
 9fa:	00 c0       	rjmp	.+0      	; 0x9fc <_Z1pv+0x14>
 9fc:	00 00       	nop
 9fe:	ff cf       	rjmp	.-2      	; 0x9fe <_Z1pv+0x16>

00000a00 <_Z6r_mainv>:
		Task_Next();
	}
}

extern int r_main(void)
{
 a00:	0f 93       	push	r16
 a02:	1f 93       	push	r17
	//Task_Create_RR(p2, 0);
	//Task_Create_System(p, 0);
	Task_Create_Periodic( p, 0, 20, 1, 2 );
 a04:	02 e0       	ldi	r16, 0x02	; 2
 a06:	10 e0       	ldi	r17, 0x00	; 0
 a08:	21 e0       	ldi	r18, 0x01	; 1
 a0a:	30 e0       	ldi	r19, 0x00	; 0
 a0c:	44 e1       	ldi	r20, 0x14	; 20
 a0e:	50 e0       	ldi	r21, 0x00	; 0
 a10:	60 e0       	ldi	r22, 0x00	; 0
 a12:	70 e0       	ldi	r23, 0x00	; 0
 a14:	84 ef       	ldi	r24, 0xF4	; 244
 a16:	94 e0       	ldi	r25, 0x04	; 4
 a18:	be df       	rcall	.-132    	; 0x996 <Task_Create_Periodic>
	return 1;
}
 a1a:	81 e0       	ldi	r24, 0x01	; 1
 a1c:	90 e0       	ldi	r25, 0x00	; 0
 a1e:	1f 91       	pop	r17
 a20:	0f 91       	pop	r16
 a22:	08 95       	ret

00000a24 <__udivmodqi4>:
 a24:	99 1b       	sub	r25, r25
 a26:	79 e0       	ldi	r23, 0x09	; 9
 a28:	04 c0       	rjmp	.+8      	; 0xa32 <__udivmodqi4_ep>

00000a2a <__udivmodqi4_loop>:
 a2a:	99 1f       	adc	r25, r25
 a2c:	96 17       	cp	r25, r22
 a2e:	08 f0       	brcs	.+2      	; 0xa32 <__udivmodqi4_ep>
 a30:	96 1b       	sub	r25, r22

00000a32 <__udivmodqi4_ep>:
 a32:	88 1f       	adc	r24, r24
 a34:	7a 95       	dec	r23
 a36:	c9 f7       	brne	.-14     	; 0xa2a <__udivmodqi4_loop>
 a38:	80 95       	com	r24
 a3a:	08 95       	ret

00000a3c <_exit>:
 a3c:	f8 94       	cli

00000a3e <__stop_program>:
 a3e:	ff cf       	rjmp	.-2      	; 0xa3e <__stop_program>
