	.file	"project2.cpp"
__SP_H__ = 0x3e
__SP_L__ = 0x3d
__SREG__ = 0x3f
__RAMPZ__ = 0x3b
__tmp_reg__ = 0
__zero_reg__ = 1
	.text
.Ltext0:
	.cfi_sections	.debug_frame
	.section	.text._Z1pv,"ax",@progbits
.global	_Z1pv
	.type	_Z1pv, @function
_Z1pv:
.LFB97:
	.file 1 ".././tests/test1.cpp"
	.loc 1 41 0
	.cfi_startproc
	push r28
.LCFI0:
	.cfi_def_cfa_offset 4
	.cfi_offset 28, -3
	push r29
.LCFI1:
	.cfi_def_cfa_offset 5
	.cfi_offset 29, -4
	push __zero_reg__
	push __zero_reg__
.LCFI2:
	.cfi_def_cfa_offset 7
	in r28,__SP_L__
	in r29,__SP_H__
.LCFI3:
	.cfi_def_cfa_register 28
/* prologue: function */
/* frame size = 2 */
/* stack size = 4 */
.L__stack_usage = 4
.LBB2:
	.loc 1 42 0
	ldi r24,lo8(1)
	ldi r25,0
	std Y+2,r25
	std Y+1,r24
	.loc 1 43 0
	call _Z12add_to_tracej
.LVL0:
	.loc 1 44 0
	movw r22,r28
	subi r22,-1
	sbci r23,-1
	lds r24,serviceTest
	lds r25,serviceTest+1
	call Service_Subscribe
.LVL1:
	.loc 1 46 0
	ldi r24,lo8(1)
	ldi r25,0
	call _Z12add_to_tracej
.LVL2:
/* epilogue start */
.LBE2:
	.loc 1 48 0
	pop __tmp_reg__
	pop __tmp_reg__
	pop r29
	pop r28
	ret
	.cfi_endproc
.LFE97:
	.size	_Z1pv, .-_Z1pv
	.section	.text._Z2p2v,"ax",@progbits
.global	_Z2p2v
	.type	_Z2p2v, @function
_Z2p2v:
.LFB98:
	.loc 1 51 0
	.cfi_startproc
/* prologue: function */
/* frame size = 0 */
/* stack size = 0 */
.L__stack_usage = 0
.LVL3:
.LBB3:
	.loc 1 53 0
	ldi r24,0
	ldi r25,0
	call _Z12add_to_tracej
.LVL4:
	.loc 1 54 0
	call _Z11print_tracev
.LVL5:
	.loc 1 55 0
	ldi r22,lo8(5)
	ldi r23,0
	lds r24,serviceTest
	lds r25,serviceTest+1
	jmp Service_Publish
.LVL6:
.LBE3:
	.cfi_endproc
.LFE98:
	.size	_Z2p2v, .-_Z2p2v
	.section	.text._Z6r_mainv,"ax",@progbits
.global	_Z6r_mainv
	.type	_Z6r_mainv, @function
_Z6r_mainv:
.LFB99:
	.loc 1 60 0
	.cfi_startproc
/* prologue: function */
/* frame size = 0 */
/* stack size = 0 */
.L__stack_usage = 0
	.loc 1 63 0
	call _Z9uart_initv
.LVL7:
	.loc 1 64 0
	ldi r24,lo8(1)
	call _Z14set_trace_testh
.LVL8:
	.loc 1 65 0
	ldi r24,0
	ldi r25,0
	call _Z12add_to_tracej
.LVL9:
	.loc 1 66 0
	ldi r22,0
	ldi r23,0
	ldi r24,lo8(gs(_Z1pv))
	ldi r25,hi8(gs(_Z1pv))
	call Task_Create_System
.LVL10:
	.loc 1 67 0
	ldi r22,0
	ldi r23,0
	ldi r24,lo8(gs(_Z2p2v))
	ldi r25,hi8(gs(_Z2p2v))
	call Task_Create_System
.LVL11:
	.loc 1 68 0
	ldi r24,0
	ldi r25,0
	call _Z12add_to_tracej
.LVL12:
	.loc 1 70 0
	ldi r24,lo8(1)
	ldi r25,0
	ret
	.cfi_endproc
.LFE99:
	.size	_Z6r_mainv, .-_Z6r_mainv
.global	serviceTest
	.section	.bss.serviceTest,"aw",@nobits
	.type	serviceTest, @object
	.size	serviceTest, 2
serviceTest:
	.zero	2
	.text
.Letext0:
	.file 2 "c:\\program files (x86)\\atmel\\atmel toolchain\\avr8 gcc\\native\\3.4.1061\\avr8-gnu-toolchain\\avr\\include\\stdint.h"
	.file 3 ".././os.h"
	.file 4 ".././kernel.h"
	.file 5 "C:\\Program Files (x86)\\Arduino\\hardware\\arduino\\variants\\standard/pins_arduino.h"
	.file 6 ".././trace/trace.h"
	.file 7 ".././uart/uart.h"