	.file	"uart.cpp"
__SP_H__ = 0x3e
__SP_L__ = 0x3d
__SREG__ = 0x3f
__RAMPZ__ = 0x3b
__tmp_reg__ = 0
__zero_reg__ = 1
	.text
.Ltext0:
	.cfi_sections	.debug_frame
	.section	.text._Z12uart_putcharc,"ax",@progbits
.global	_Z12uart_putcharc
	.type	_Z12uart_putcharc, @function
_Z12uart_putcharc:
.LFB0:
	.file 1 "../uart/uart.cpp"
	.loc 1 15 0
	.cfi_startproc
.LVL0:
/* prologue: function */
/* frame size = 0 */
/* stack size = 0 */
.L__stack_usage = 0
	.loc 1 16 0
/* #APP */
 ;  16 "../uart/uart.cpp" 1
	cli
 ;  0 "" 2
/* #NOAPP */
.L3:
	.loc 1 18 0 discriminator 1
	lds r25,192
	sbrs r25,5
	rjmp .L3
	.loc 1 19 0
	sts 198,r24
	.loc 1 20 0
/* #APP */
 ;  20 "../uart/uart.cpp" 1
	sei
 ;  0 "" 2
/* #NOAPP */
	ret
	.cfi_endproc
.LFE0:
	.size	_Z12uart_putcharc, .-_Z12uart_putcharc
	.section	.text._Z12uart_getchari,"ax",@progbits
.global	_Z12uart_getchari
	.type	_Z12uart_getchari, @function
_Z12uart_getchari:
.LFB1:
	.loc 1 24 0
	.cfi_startproc
.LVL1:
/* prologue: function */
/* frame size = 0 */
/* stack size = 0 */
.L__stack_usage = 0
	.loc 1 25 0
	cpi r24,100
	cpc r25,__zero_reg__
	brge .L7
	.loc 1 26 0
	movw r30,r24
	subi r30,lo8(-(_ZL2rx))
	sbci r31,hi8(-(_ZL2rx))
	ld r24,Z
.LVL2:
	ret
.LVL3:
.L7:
	.loc 1 28 0
	ldi r24,0
.LVL4:
	.loc 1 29 0
	ret
	.cfi_endproc
.LFE1:
	.size	_Z12uart_getchari, .-_Z12uart_getchari
	.section	.text._Z11uart_putstrPc,"ax",@progbits
.global	_Z11uart_putstrPc
	.type	_Z11uart_putstrPc, @function
_Z11uart_putstrPc:
.LFB2:
	.loc 1 32 0
	.cfi_startproc
.LVL5:
	push r28
.LCFI0:
	.cfi_def_cfa_offset 4
	.cfi_offset 28, -3
	push r29
.LCFI1:
	.cfi_def_cfa_offset 5
	.cfi_offset 29, -4
/* prologue: function */
/* frame size = 0 */
/* stack size = 2 */
.L__stack_usage = 2
	movw r28,r24
.LVL6:
.L9:
	.loc 1 33 0 discriminator 1
	ld r24,Y+
.LVL7:
	tst r24
	breq .L11
.LVL8:
	.loc 1 33 0 is_stmt 0 discriminator 2
	call _Z12uart_putcharc
.LVL9:
	rjmp .L9
.LVL10:
.L11:
/* epilogue start */
	.loc 1 35 0 is_stmt 1
	pop r29
	pop r28
.LVL11:
	ret
	.cfi_endproc
.LFE2:
	.size	_Z11uart_putstrPc, .-_Z11uart_putstrPc
	.section	.text._Z10uart_writePhi,"ax",@progbits
.global	_Z10uart_writePhi
	.type	_Z10uart_writePhi, @function
_Z10uart_writePhi:
.LFB3:
	.loc 1 37 0
	.cfi_startproc
.LVL12:
/* prologue: function */
/* frame size = 0 */
/* stack size = 0 */
.L__stack_usage = 0
	.loc 1 38 0
	call _Z11uart_putstrPc
.LVL13:
	.loc 1 40 0
	ldi r24,0
	ldi r25,0
	ret
	.cfi_endproc
.LFE3:
	.size	_Z10uart_writePhi, .-_Z10uart_writePhi
	.section	.text._Z9uart_initv,"ax",@progbits
.global	_Z9uart_initv
	.type	_Z9uart_initv, @function
_Z9uart_initv:
.LFB4:
	.loc 1 42 0
	.cfi_startproc
/* prologue: function */
/* frame size = 0 */
/* stack size = 0 */
.L__stack_usage = 0
.LBB2:
	.loc 1 47 0
	sts _ZL3rxn+1,__zero_reg__
	sts _ZL3rxn,__zero_reg__
	.loc 1 48 0
	sts _ZL7uart_rx,__zero_reg__
.LVL14:
	.loc 1 52 0
	sts 197,__zero_reg__
	.loc 1 53 0
	ldi r24,lo8(103)
	sts 196,r24
	.loc 1 56 0
	ldi r24,lo8(-104)
	sts 193,r24
	.loc 1 59 0
	ldi r24,lo8(14)
	sts 194,r24
	ret
.LBE2:
	.cfi_endproc
.LFE4:
	.size	_Z9uart_initv, .-_Z9uart_initv
	.section	.text._Z15uart_bytes_recvv,"ax",@progbits
.global	_Z15uart_bytes_recvv
	.type	_Z15uart_bytes_recvv, @function
_Z15uart_bytes_recvv:
.LFB5:
	.loc 1 63 0
	.cfi_startproc
/* prologue: function */
/* frame size = 0 */
/* stack size = 0 */
.L__stack_usage = 0
	.loc 1 64 0
	lds r24,_ZL3rxn
	lds r25,_ZL3rxn+1
	.loc 1 65 0
	ret
	.cfi_endproc
.LFE5:
	.size	_Z15uart_bytes_recvv, .-_Z15uart_bytes_recvv
	.section	.text._Z15uart_reset_recvv,"ax",@progbits
.global	_Z15uart_reset_recvv
	.type	_Z15uart_reset_recvv, @function
_Z15uart_reset_recvv:
.LFB6:
	.loc 1 68 0
	.cfi_startproc
/* prologue: function */
/* frame size = 0 */
/* stack size = 0 */
.L__stack_usage = 0
	.loc 1 69 0
	sts _ZL3rxn+1,__zero_reg__
	sts _ZL3rxn,__zero_reg__
	ret
	.cfi_endproc
.LFE6:
	.size	_Z15uart_reset_recvv, .-_Z15uart_reset_recvv
	.section	.text.__vector_25,"ax",@progbits
.global	__vector_25
	.type	__vector_25, @function
__vector_25:
.LFB7:
	.loc 1 77 0
	.cfi_startproc
	push r1
.LCFI2:
	.cfi_def_cfa_offset 4
	.cfi_offset 1, -3
	push r0
.LCFI3:
	.cfi_def_cfa_offset 5
	.cfi_offset 0, -4
	in r0,__SREG__
	push r0
	clr __zero_reg__
	in r0,__RAMPZ__
	push r0
	push r21
.LCFI4:
	.cfi_def_cfa_offset 6
	.cfi_offset 21, -5
	push r22
.LCFI5:
	.cfi_def_cfa_offset 7
	.cfi_offset 22, -6
	push r23
.LCFI6:
	.cfi_def_cfa_offset 8
	.cfi_offset 23, -7
	push r24
.LCFI7:
	.cfi_def_cfa_offset 9
	.cfi_offset 24, -8
	push r25
.LCFI8:
	.cfi_def_cfa_offset 10
	.cfi_offset 25, -9
	push r26
.LCFI9:
	.cfi_def_cfa_offset 11
	.cfi_offset 26, -10
	push r27
.LCFI10:
	.cfi_def_cfa_offset 12
	.cfi_offset 27, -11
	push r30
.LCFI11:
	.cfi_def_cfa_offset 13
	.cfi_offset 30, -12
	push r31
.LCFI12:
	.cfi_def_cfa_offset 14
	.cfi_offset 31, -13
/* prologue: Signal */
/* frame size = 0 */
/* stack size = 13 */
.L__stack_usage = 13
.L18:
	.loc 1 78 0 discriminator 1
	lds r24,192
	sbrs r24,7
	rjmp .L18
	.loc 1 82 0
	lds r30,_ZL3rxn
	lds r31,_ZL3rxn+1
	lds r24,198
	subi r30,lo8(-(_ZL2rx))
	sbci r31,hi8(-(_ZL2rx))
	st Z,r24
	.loc 1 83 0
	lds r24,_ZL3rxn
	lds r25,_ZL3rxn+1
	adiw r24,1
	ldi r22,lo8(100)
	ldi r23,0
	call __divmodhi4
	sts _ZL3rxn+1,r25
	sts _ZL3rxn,r24
	.loc 1 84 0
	ldi r24,lo8(1)
	sts _ZL7uart_rx,r24
/* epilogue start */
	.loc 1 86 0
	pop r31
	pop r30
	pop r27
	pop r26
	pop r25
	pop r24
	pop r23
	pop r22
	pop r21
	pop r0
	out __RAMPZ__,r0
	pop r0
	out __SREG__,r0
	pop r0
	pop r1
	reti
	.cfi_endproc
.LFE7:
	.size	__vector_25, .-__vector_25
	.section	.bss._ZL7uart_rx,"aw",@nobits
	.type	_ZL7uart_rx, @object
	.size	_ZL7uart_rx, 1
_ZL7uart_rx:
	.zero	1
	.section	.bss._ZL2rx,"aw",@nobits
	.type	_ZL2rx, @object
	.size	_ZL2rx, 100
_ZL2rx:
	.zero	100
	.section	.bss._ZL3rxn,"aw",@nobits
	.type	_ZL3rxn, @object
	.size	_ZL3rxn, 2
_ZL3rxn:
	.zero	2
	.text
.Letext0:
	.file 2 "c:\\program files (x86)\\atmel\\atmel toolchain\\avr8 gcc\\native\\3.4.1061\\avr8-gnu-toolchain\\avr\\include\\stdint.h"