
project2.elf:     file format elf32-avr

Sections:
Idx Name          Size      VMA       LMA       File off  Algn
  0 .data         00000010  00800200  00000f24  00000fb8  2**0
                  CONTENTS, ALLOC, LOAD, DATA
  1 .text         00000f24  00000000  00000000  00000094  2**1
                  CONTENTS, ALLOC, LOAD, READONLY, CODE
  2 .bss          00000a1a  00800210  00800210  00000fc8  2**0
                  ALLOC
  3 .comment      00000030  00000000  00000000  00000fc8  2**0
                  CONTENTS, READONLY
  4 .debug_aranges 000002b0  00000000  00000000  00000ff8  2**0
                  CONTENTS, READONLY, DEBUGGING
  5 .debug_pubnames 0000008d  00000000  00000000  000012a8  2**0
                  CONTENTS, READONLY, DEBUGGING
  6 .debug_info   00003a79  00000000  00000000  00001335  2**0
                  CONTENTS, READONLY, DEBUGGING
  7 .debug_abbrev 00000f96  00000000  00000000  00004dae  2**0
                  CONTENTS, READONLY, DEBUGGING
  8 .debug_line   00001cf3  00000000  00000000  00005d44  2**0
                  CONTENTS, READONLY, DEBUGGING
  9 .debug_frame  000006e0  00000000  00000000  00007a38  2**2
                  CONTENTS, READONLY, DEBUGGING
 10 .debug_str    000014ed  00000000  00000000  00008118  2**0
                  CONTENTS, READONLY, DEBUGGING
 11 .debug_loc    00001972  00000000  00000000  00009605  2**0
                  CONTENTS, READONLY, DEBUGGING
 12 .debug_ranges 00000290  00000000  00000000  0000af77  2**0
                  CONTENTS, READONLY, DEBUGGING

Disassembly of section .text:

00000000 <__vectors>:
   0:	71 c0       	rjmp	.+226    	; 0xe4 <__ctors_end>
   2:	00 00       	nop
   4:	8e c0       	rjmp	.+284    	; 0x122 <__bad_interrupt>
   6:	00 00       	nop
   8:	8c c0       	rjmp	.+280    	; 0x122 <__bad_interrupt>
   a:	00 00       	nop
   c:	8a c0       	rjmp	.+276    	; 0x122 <__bad_interrupt>
   e:	00 00       	nop
  10:	88 c0       	rjmp	.+272    	; 0x122 <__bad_interrupt>
  12:	00 00       	nop
  14:	e5 c5       	rjmp	.+3018   	; 0xbe0 <__vector_5>
  16:	00 00       	nop
  18:	84 c0       	rjmp	.+264    	; 0x122 <__bad_interrupt>
  1a:	00 00       	nop
  1c:	82 c0       	rjmp	.+260    	; 0x122 <__bad_interrupt>
  1e:	00 00       	nop
  20:	80 c0       	rjmp	.+256    	; 0x122 <__bad_interrupt>
  22:	00 00       	nop
  24:	7e c0       	rjmp	.+252    	; 0x122 <__bad_interrupt>
  26:	00 00       	nop
  28:	7c c0       	rjmp	.+248    	; 0x122 <__bad_interrupt>
  2a:	00 00       	nop
  2c:	7a c0       	rjmp	.+244    	; 0x122 <__bad_interrupt>
  2e:	00 00       	nop
  30:	78 c0       	rjmp	.+240    	; 0x122 <__bad_interrupt>
  32:	00 00       	nop
  34:	76 c0       	rjmp	.+236    	; 0x122 <__bad_interrupt>
  36:	00 00       	nop
  38:	74 c0       	rjmp	.+232    	; 0x122 <__bad_interrupt>
  3a:	00 00       	nop
  3c:	72 c0       	rjmp	.+228    	; 0x122 <__bad_interrupt>
  3e:	00 00       	nop
  40:	70 c0       	rjmp	.+224    	; 0x122 <__bad_interrupt>
  42:	00 00       	nop
  44:	52 c1       	rjmp	.+676    	; 0x2ea <__vector_17>
  46:	00 00       	nop
  48:	6c c0       	rjmp	.+216    	; 0x122 <__bad_interrupt>
  4a:	00 00       	nop
  4c:	6a c0       	rjmp	.+212    	; 0x122 <__bad_interrupt>
  4e:	00 00       	nop
  50:	68 c0       	rjmp	.+208    	; 0x122 <__bad_interrupt>
  52:	00 00       	nop
  54:	66 c0       	rjmp	.+204    	; 0x122 <__bad_interrupt>
  56:	00 00       	nop
  58:	64 c0       	rjmp	.+200    	; 0x122 <__bad_interrupt>
  5a:	00 00       	nop
  5c:	19 c7       	rjmp	.+3634   	; 0xe90 <__vector_23>
  5e:	00 00       	nop
  60:	60 c0       	rjmp	.+192    	; 0x122 <__bad_interrupt>
  62:	00 00       	nop
  64:	5e c0       	rjmp	.+188    	; 0x122 <__bad_interrupt>
  66:	00 00       	nop
  68:	5c c0       	rjmp	.+184    	; 0x122 <__bad_interrupt>
  6a:	00 00       	nop
  6c:	5a c0       	rjmp	.+180    	; 0x122 <__bad_interrupt>
  6e:	00 00       	nop
  70:	58 c0       	rjmp	.+176    	; 0x122 <__bad_interrupt>
  72:	00 00       	nop
  74:	56 c0       	rjmp	.+172    	; 0x122 <__bad_interrupt>
  76:	00 00       	nop
  78:	54 c0       	rjmp	.+168    	; 0x122 <__bad_interrupt>
  7a:	00 00       	nop
  7c:	52 c0       	rjmp	.+164    	; 0x122 <__bad_interrupt>
  7e:	00 00       	nop
  80:	50 c0       	rjmp	.+160    	; 0x122 <__bad_interrupt>
  82:	00 00       	nop
  84:	4e c0       	rjmp	.+156    	; 0x122 <__bad_interrupt>
  86:	00 00       	nop
  88:	4c c0       	rjmp	.+152    	; 0x122 <__bad_interrupt>
  8a:	00 00       	nop
  8c:	4a c0       	rjmp	.+148    	; 0x122 <__bad_interrupt>
  8e:	00 00       	nop
  90:	d9 c6       	rjmp	.+3506   	; 0xe44 <__vector_36>
  92:	00 00       	nop
  94:	46 c0       	rjmp	.+140    	; 0x122 <__bad_interrupt>
  96:	00 00       	nop
  98:	44 c0       	rjmp	.+136    	; 0x122 <__bad_interrupt>
  9a:	00 00       	nop
  9c:	42 c0       	rjmp	.+132    	; 0x122 <__bad_interrupt>
  9e:	00 00       	nop
  a0:	40 c0       	rjmp	.+128    	; 0x122 <__bad_interrupt>
  a2:	00 00       	nop
  a4:	3e c0       	rjmp	.+124    	; 0x122 <__bad_interrupt>
  a6:	00 00       	nop
  a8:	3c c0       	rjmp	.+120    	; 0x122 <__bad_interrupt>
  aa:	00 00       	nop
  ac:	3a c0       	rjmp	.+116    	; 0x122 <__bad_interrupt>
  ae:	00 00       	nop
  b0:	38 c0       	rjmp	.+112    	; 0x122 <__bad_interrupt>
  b2:	00 00       	nop
  b4:	36 c0       	rjmp	.+108    	; 0x122 <__bad_interrupt>
  b6:	00 00       	nop
  b8:	34 c0       	rjmp	.+104    	; 0x122 <__bad_interrupt>
  ba:	00 00       	nop
  bc:	32 c0       	rjmp	.+100    	; 0x122 <__bad_interrupt>
  be:	00 00       	nop
  c0:	30 c0       	rjmp	.+96     	; 0x122 <__bad_interrupt>
  c2:	00 00       	nop
  c4:	2e c0       	rjmp	.+92     	; 0x122 <__bad_interrupt>
  c6:	00 00       	nop
  c8:	2c c0       	rjmp	.+88     	; 0x122 <__bad_interrupt>
  ca:	00 00       	nop
  cc:	2a c0       	rjmp	.+84     	; 0x122 <__bad_interrupt>
  ce:	00 00       	nop
  d0:	28 c0       	rjmp	.+80     	; 0x122 <__bad_interrupt>
  d2:	00 00       	nop
  d4:	26 c0       	rjmp	.+76     	; 0x122 <__bad_interrupt>
  d6:	00 00       	nop
  d8:	24 c0       	rjmp	.+72     	; 0x122 <__bad_interrupt>
  da:	00 00       	nop
  dc:	22 c0       	rjmp	.+68     	; 0x122 <__bad_interrupt>
  de:	00 00       	nop
  e0:	20 c0       	rjmp	.+64     	; 0x122 <__bad_interrupt>
	...

000000e4 <__ctors_end>:
  e4:	11 24       	eor	r1, r1
  e6:	1f be       	out	0x3f, r1	; 63
  e8:	cf ef       	ldi	r28, 0xFF	; 255
  ea:	d1 e2       	ldi	r29, 0x21	; 33
  ec:	de bf       	out	0x3e, r29	; 62
  ee:	cd bf       	out	0x3d, r28	; 61
  f0:	00 e0       	ldi	r16, 0x00	; 0
  f2:	0c bf       	out	0x3c, r16	; 60

000000f4 <__do_copy_data>:
  f4:	12 e0       	ldi	r17, 0x02	; 2
  f6:	a0 e0       	ldi	r26, 0x00	; 0
  f8:	b2 e0       	ldi	r27, 0x02	; 2
  fa:	e4 e2       	ldi	r30, 0x24	; 36
  fc:	ff e0       	ldi	r31, 0x0F	; 15
  fe:	00 e0       	ldi	r16, 0x00	; 0
 100:	0b bf       	out	0x3b, r16	; 59
 102:	02 c0       	rjmp	.+4      	; 0x108 <__do_copy_data+0x14>
 104:	07 90       	elpm	r0, Z+
 106:	0d 92       	st	X+, r0
 108:	a0 31       	cpi	r26, 0x10	; 16
 10a:	b1 07       	cpc	r27, r17
 10c:	d9 f7       	brne	.-10     	; 0x104 <__do_copy_data+0x10>

0000010e <__do_clear_bss>:
 10e:	2c e0       	ldi	r18, 0x0C	; 12
 110:	a0 e1       	ldi	r26, 0x10	; 16
 112:	b2 e0       	ldi	r27, 0x02	; 2
 114:	01 c0       	rjmp	.+2      	; 0x118 <.do_clear_bss_start>

00000116 <.do_clear_bss_loop>:
 116:	1d 92       	st	X+, r1

00000118 <.do_clear_bss_start>:
 118:	aa 32       	cpi	r26, 0x2A	; 42
 11a:	b2 07       	cpc	r27, r18
 11c:	e1 f7       	brne	.-8      	; 0x116 <.do_clear_bss_loop>
 11e:	83 d4       	rcall	.+2310   	; 0xa26 <main>
 120:	ff c6       	rjmp	.+3582   	; 0xf20 <_exit>

00000122 <__bad_interrupt>:
 122:	6e cf       	rjmp	.-292    	; 0x0 <__vectors>

00000124 <_ZL4idlev>:
    arg = cur_task->arg;

    SREG = sreg;

    return arg;
}
 124:	ff cf       	rjmp	.-2      	; 0x124 <_ZL4idlev>

00000126 <_ZL11exit_kernelv>:
 126:	ff 93       	push	r31
 128:	fc b7       	in	r31, 0x3c	; 60
 12a:	ff 93       	push	r31
 12c:	ff b7       	in	r31, 0x3f	; 63
 12e:	f8 94       	cli
 130:	ff 93       	push	r31
 132:	ef 93       	push	r30
 134:	df 93       	push	r29
 136:	cf 93       	push	r28
 138:	bf 93       	push	r27
 13a:	af 93       	push	r26
 13c:	9f 93       	push	r25
 13e:	8f 93       	push	r24
 140:	7f 93       	push	r23
 142:	6f 93       	push	r22
 144:	5f 93       	push	r21
 146:	4f 93       	push	r20
 148:	3f 93       	push	r19
 14a:	2f 93       	push	r18
 14c:	1f 93       	push	r17
 14e:	0f 93       	push	r16
 150:	ff 92       	push	r15
 152:	ef 92       	push	r14
 154:	df 92       	push	r13
 156:	cf 92       	push	r12
 158:	bf 92       	push	r11
 15a:	af 92       	push	r10
 15c:	9f 92       	push	r9
 15e:	8f 92       	push	r8
 160:	7f 92       	push	r7
 162:	6f 92       	push	r6
 164:	5f 92       	push	r5
 166:	4f 92       	push	r4
 168:	3f 92       	push	r3
 16a:	2f 92       	push	r2
 16c:	1f 92       	push	r1
 16e:	0f 92       	push	r0
 170:	8d b7       	in	r24, 0x3d	; 61
 172:	9e b7       	in	r25, 0x3e	; 62
 174:	90 93 fc 0b 	sts	0x0BFC, r25
 178:	80 93 fb 0b 	sts	0x0BFB, r24
 17c:	e0 91 fd 0b 	lds	r30, 0x0BFD
 180:	f0 91 fe 0b 	lds	r31, 0x0BFE
 184:	f3 95       	inc	r31
 186:	80 81       	ld	r24, Z
 188:	91 81       	ldd	r25, Z+1	; 0x01
 18a:	9e bf       	out	0x3e, r25	; 62
 18c:	8d bf       	out	0x3d, r24	; 61
 18e:	0f 90       	pop	r0
 190:	1f 90       	pop	r1
 192:	2f 90       	pop	r2
 194:	3f 90       	pop	r3
 196:	4f 90       	pop	r4
 198:	5f 90       	pop	r5
 19a:	6f 90       	pop	r6
 19c:	7f 90       	pop	r7
 19e:	8f 90       	pop	r8
 1a0:	9f 90       	pop	r9
 1a2:	af 90       	pop	r10
 1a4:	bf 90       	pop	r11
 1a6:	cf 90       	pop	r12
 1a8:	df 90       	pop	r13
 1aa:	ef 90       	pop	r14
 1ac:	ff 90       	pop	r15
 1ae:	0f 91       	pop	r16
 1b0:	1f 91       	pop	r17
 1b2:	2f 91       	pop	r18
 1b4:	3f 91       	pop	r19
 1b6:	4f 91       	pop	r20
 1b8:	5f 91       	pop	r21
 1ba:	6f 91       	pop	r22
 1bc:	7f 91       	pop	r23
 1be:	8f 91       	pop	r24
 1c0:	9f 91       	pop	r25
 1c2:	af 91       	pop	r26
 1c4:	bf 91       	pop	r27
 1c6:	cf 91       	pop	r28
 1c8:	df 91       	pop	r29
 1ca:	ef 91       	pop	r30
 1cc:	ff 91       	pop	r31
 1ce:	ff bf       	out	0x3f, r31	; 63
 1d0:	ff 91       	pop	r31
 1d2:	fc bf       	out	0x3c, r31	; 60
 1d4:	ff 91       	pop	r31
 1d6:	08 95       	ret

000001d8 <_ZL12enter_kernelv>:
 1d8:	ff 93       	push	r31
 1da:	fc b7       	in	r31, 0x3c	; 60
 1dc:	ff 93       	push	r31
 1de:	ff b7       	in	r31, 0x3f	; 63
 1e0:	f8 94       	cli
 1e2:	ff 93       	push	r31
 1e4:	ef 93       	push	r30
 1e6:	df 93       	push	r29
 1e8:	cf 93       	push	r28
 1ea:	bf 93       	push	r27
 1ec:	af 93       	push	r26
 1ee:	9f 93       	push	r25
 1f0:	8f 93       	push	r24
 1f2:	7f 93       	push	r23
 1f4:	6f 93       	push	r22
 1f6:	5f 93       	push	r21
 1f8:	4f 93       	push	r20
 1fa:	3f 93       	push	r19
 1fc:	2f 93       	push	r18
 1fe:	1f 93       	push	r17
 200:	0f 93       	push	r16
 202:	ff 92       	push	r15
 204:	ef 92       	push	r14
 206:	df 92       	push	r13
 208:	cf 92       	push	r12
 20a:	bf 92       	push	r11
 20c:	af 92       	push	r10
 20e:	9f 92       	push	r9
 210:	8f 92       	push	r8
 212:	7f 92       	push	r7
 214:	6f 92       	push	r6
 216:	5f 92       	push	r5
 218:	4f 92       	push	r4
 21a:	3f 92       	push	r3
 21c:	2f 92       	push	r2
 21e:	1f 92       	push	r1
 220:	0f 92       	push	r0
 222:	e0 91 fd 0b 	lds	r30, 0x0BFD
 226:	f0 91 fe 0b 	lds	r31, 0x0BFE
 22a:	8d b7       	in	r24, 0x3d	; 61
 22c:	9e b7       	in	r25, 0x3e	; 62
 22e:	f3 95       	inc	r31
 230:	91 83       	std	Z+1, r25	; 0x01
 232:	80 83       	st	Z, r24
 234:	80 91 fb 0b 	lds	r24, 0x0BFB
 238:	90 91 fc 0b 	lds	r25, 0x0BFC
 23c:	9e bf       	out	0x3e, r25	; 62
 23e:	8d bf       	out	0x3d, r24	; 61
 240:	0f 90       	pop	r0
 242:	1f 90       	pop	r1
 244:	2f 90       	pop	r2
 246:	3f 90       	pop	r3
 248:	4f 90       	pop	r4
 24a:	5f 90       	pop	r5
 24c:	6f 90       	pop	r6
 24e:	7f 90       	pop	r7
 250:	8f 90       	pop	r8
 252:	9f 90       	pop	r9
 254:	af 90       	pop	r10
 256:	bf 90       	pop	r11
 258:	cf 90       	pop	r12
 25a:	df 90       	pop	r13
 25c:	ef 90       	pop	r14
 25e:	ff 90       	pop	r15
 260:	0f 91       	pop	r16
 262:	1f 91       	pop	r17
 264:	2f 91       	pop	r18
 266:	3f 91       	pop	r19
 268:	4f 91       	pop	r20
 26a:	5f 91       	pop	r21
 26c:	6f 91       	pop	r22
 26e:	7f 91       	pop	r23
 270:	8f 91       	pop	r24
 272:	9f 91       	pop	r25
 274:	af 91       	pop	r26
 276:	bf 91       	pop	r27
 278:	cf 91       	pop	r28
 27a:	df 91       	pop	r29
 27c:	ef 91       	pop	r30
 27e:	ff 91       	pop	r31
 280:	ff bf       	out	0x3f, r31	; 63
 282:	ff 91       	pop	r31
 284:	fc bf       	out	0x3c, r31	; 60
 286:	ff 91       	pop	r31
 288:	08 95       	ret

0000028a <_ZL7enqueueP7queue_tP9td_struct>:
 28a:	fc 01       	movw	r30, r24
 28c:	db 01       	movw	r26, r22
 28e:	a0 5f       	subi	r26, 0xF0	; 240
 290:	be 4f       	sbci	r27, 0xFE	; 254
 292:	1d 92       	st	X+, r1
 294:	1c 92       	st	X, r1
 296:	80 81       	ld	r24, Z
 298:	91 81       	ldd	r25, Z+1	; 0x01
 29a:	89 2b       	or	r24, r25
 29c:	19 f4       	brne	.+6      	; 0x2a4 <_ZL7enqueueP7queue_tP9td_struct+0x1a>
 29e:	71 83       	std	Z+1, r23	; 0x01
 2a0:	60 83       	st	Z, r22
 2a2:	06 c0       	rjmp	.+12     	; 0x2b0 <_ZL7enqueueP7queue_tP9td_struct+0x26>
 2a4:	a2 81       	ldd	r26, Z+2	; 0x02
 2a6:	b3 81       	ldd	r27, Z+3	; 0x03
 2a8:	a0 5f       	subi	r26, 0xF0	; 240
 2aa:	be 4f       	sbci	r27, 0xFE	; 254
 2ac:	6d 93       	st	X+, r22
 2ae:	7c 93       	st	X, r23
 2b0:	73 83       	std	Z+3, r23	; 0x03
 2b2:	62 83       	std	Z+2, r22	; 0x02
 2b4:	08 95       	ret

000002b6 <Task_Terminate>:
 2b6:	cf 93       	push	r28
 2b8:	cf b7       	in	r28, 0x3f	; 63
 2ba:	f8 94       	cli
 2bc:	83 e0       	ldi	r24, 0x03	; 3
 2be:	80 93 46 02 	sts	0x0246, r24
 2c2:	8a df       	rcall	.-236    	; 0x1d8 <_ZL12enter_kernelv>
 2c4:	cf bf       	out	0x3f, r28	; 63
 2c6:	cf 91       	pop	r28
 2c8:	08 95       	ret

000002ca <_ZL7dequeueP7queue_t.isra.1>:
 2ca:	dc 01       	movw	r26, r24
 2cc:	8d 91       	ld	r24, X+
 2ce:	9c 91       	ld	r25, X
 2d0:	11 97       	sbiw	r26, 0x01	; 1
 2d2:	00 97       	sbiw	r24, 0x00	; 0
 2d4:	49 f0       	breq	.+18     	; 0x2e8 <_ZL7dequeueP7queue_t.isra.1+0x1e>
 2d6:	fc 01       	movw	r30, r24
 2d8:	e0 5f       	subi	r30, 0xF0	; 240
 2da:	fe 4f       	sbci	r31, 0xFE	; 254
 2dc:	20 81       	ld	r18, Z
 2de:	31 81       	ldd	r19, Z+1	; 0x01
 2e0:	2d 93       	st	X+, r18
 2e2:	3c 93       	st	X, r19
 2e4:	11 82       	std	Z+1, r1	; 0x01
 2e6:	10 82       	st	Z, r1
 2e8:	08 95       	ret

000002ea <__vector_17>:
 2ea:	ff 93       	push	r31
 2ec:	fc b7       	in	r31, 0x3c	; 60
 2ee:	ff 93       	push	r31
 2f0:	ff b7       	in	r31, 0x3f	; 63
 2f2:	f8 94       	cli
 2f4:	f0 68       	ori	r31, 0x80	; 128
 2f6:	ff 93       	push	r31
 2f8:	ef 93       	push	r30
 2fa:	df 93       	push	r29
 2fc:	cf 93       	push	r28
 2fe:	bf 93       	push	r27
 300:	af 93       	push	r26
 302:	9f 93       	push	r25
 304:	8f 93       	push	r24
 306:	7f 93       	push	r23
 308:	6f 93       	push	r22
 30a:	5f 93       	push	r21
 30c:	4f 93       	push	r20
 30e:	3f 93       	push	r19
 310:	2f 93       	push	r18
 312:	1f 93       	push	r17
 314:	0f 93       	push	r16
 316:	ff 92       	push	r15
 318:	ef 92       	push	r14
 31a:	df 92       	push	r13
 31c:	cf 92       	push	r12
 31e:	bf 92       	push	r11
 320:	af 92       	push	r10
 322:	9f 92       	push	r9
 324:	8f 92       	push	r8
 326:	7f 92       	push	r7
 328:	6f 92       	push	r6
 32a:	5f 92       	push	r5
 32c:	4f 92       	push	r4
 32e:	3f 92       	push	r3
 330:	2f 92       	push	r2
 332:	1f 92       	push	r1
 334:	0f 92       	push	r0
 336:	e0 91 fd 0b 	lds	r30, 0x0BFD
 33a:	f0 91 fe 0b 	lds	r31, 0x0BFE
 33e:	8d b7       	in	r24, 0x3d	; 61
 340:	9e b7       	in	r25, 0x3e	; 62
 342:	f3 95       	inc	r31
 344:	91 83       	std	Z+1, r25	; 0x01
 346:	80 83       	st	Z, r24
 348:	80 91 fb 0b 	lds	r24, 0x0BFB
 34c:	90 91 fc 0b 	lds	r25, 0x0BFC
 350:	9e bf       	out	0x3e, r25	; 62
 352:	8d bf       	out	0x3d, r24	; 61
 354:	81 e0       	ldi	r24, 0x01	; 1
 356:	80 93 46 02 	sts	0x0246, r24
 35a:	e8 e8       	ldi	r30, 0x88	; 136
 35c:	f0 e0       	ldi	r31, 0x00	; 0
 35e:	80 81       	ld	r24, Z
 360:	91 81       	ldd	r25, Z+1	; 0x01
 362:	80 5f       	subi	r24, 0xF0	; 240
 364:	98 4d       	sbci	r25, 0xD8	; 216
 366:	91 83       	std	Z+1, r25	; 0x01
 368:	80 83       	st	Z, r24
 36a:	80 91 fb 0b 	lds	r24, 0x0BFB
 36e:	90 91 fc 0b 	lds	r25, 0x0BFC
 372:	9e bf       	out	0x3e, r25	; 62
 374:	8d bf       	out	0x3d, r24	; 61
 376:	0f 90       	pop	r0
 378:	1f 90       	pop	r1
 37a:	2f 90       	pop	r2
 37c:	3f 90       	pop	r3
 37e:	4f 90       	pop	r4
 380:	5f 90       	pop	r5
 382:	6f 90       	pop	r6
 384:	7f 90       	pop	r7
 386:	8f 90       	pop	r8
 388:	9f 90       	pop	r9
 38a:	af 90       	pop	r10
 38c:	bf 90       	pop	r11
 38e:	cf 90       	pop	r12
 390:	df 90       	pop	r13
 392:	ef 90       	pop	r14
 394:	ff 90       	pop	r15
 396:	0f 91       	pop	r16
 398:	1f 91       	pop	r17
 39a:	2f 91       	pop	r18
 39c:	3f 91       	pop	r19
 39e:	4f 91       	pop	r20
 3a0:	5f 91       	pop	r21
 3a2:	6f 91       	pop	r22
 3a4:	7f 91       	pop	r23
 3a6:	8f 91       	pop	r24
 3a8:	9f 91       	pop	r25
 3aa:	af 91       	pop	r26
 3ac:	bf 91       	pop	r27
 3ae:	cf 91       	pop	r28
 3b0:	df 91       	pop	r29
 3b2:	ef 91       	pop	r30
 3b4:	ff 91       	pop	r31
 3b6:	ff bf       	out	0x3f, r31	; 63
 3b8:	ff 91       	pop	r31
 3ba:	fc bf       	out	0x3c, r31	; 60
 3bc:	ff 91       	pop	r31
 3be:	08 95       	ret

000003c0 <OS_Abort>:
 3c0:	f8 94       	cli
 3c2:	80 e6       	ldi	r24, 0x60	; 96
 3c4:	80 93 01 01 	sts	0x0101, r24
 3c8:	80 91 00 02 	lds	r24, 0x0200
 3cc:	86 30       	cpi	r24, 0x06	; 6
 3ce:	28 f4       	brcc	.+10     	; 0x3da <OS_Abort+0x1a>
 3d0:	80 91 00 02 	lds	r24, 0x0200
 3d4:	8f 5f       	subi	r24, 0xFF	; 255
 3d6:	30 e4       	ldi	r19, 0x40	; 64
 3d8:	04 c0       	rjmp	.+8      	; 0x3e2 <OS_Abort+0x22>
 3da:	80 91 00 02 	lds	r24, 0x0200
 3de:	85 50       	subi	r24, 0x05	; 5
 3e0:	30 e2       	ldi	r19, 0x20	; 32
 3e2:	40 e6       	ldi	r20, 0x60	; 96
 3e4:	40 93 02 01 	sts	0x0102, r20
 3e8:	94 e6       	ldi	r25, 0x64	; 100
 3ea:	2f e7       	ldi	r18, 0x7F	; 127
 3ec:	58 e3       	ldi	r21, 0x38	; 56
 3ee:	61 e0       	ldi	r22, 0x01	; 1
 3f0:	21 50       	subi	r18, 0x01	; 1
 3f2:	50 40       	sbci	r21, 0x00	; 0
 3f4:	60 40       	sbci	r22, 0x00	; 0
 3f6:	e1 f7       	brne	.-8      	; 0x3f0 <OS_Abort+0x30>
 3f8:	00 c0       	rjmp	.+0      	; 0x3fa <OS_Abort+0x3a>
 3fa:	00 00       	nop
 3fc:	91 50       	subi	r25, 0x01	; 1
 3fe:	a9 f7       	brne	.-22     	; 0x3ea <OS_Abort+0x2a>
 400:	10 92 02 01 	sts	0x0102, r1
 404:	98 e2       	ldi	r25, 0x28	; 40
 406:	7f e7       	ldi	r23, 0x7F	; 127
 408:	28 e3       	ldi	r18, 0x38	; 56
 40a:	51 e0       	ldi	r21, 0x01	; 1
 40c:	71 50       	subi	r23, 0x01	; 1
 40e:	20 40       	sbci	r18, 0x00	; 0
 410:	50 40       	sbci	r21, 0x00	; 0
 412:	e1 f7       	brne	.-8      	; 0x40c <OS_Abort+0x4c>
 414:	00 c0       	rjmp	.+0      	; 0x416 <OS_Abort+0x56>
 416:	00 00       	nop
 418:	91 50       	subi	r25, 0x01	; 1
 41a:	a9 f7       	brne	.-22     	; 0x406 <OS_Abort+0x46>
 41c:	98 17       	cp	r25, r24
 41e:	f1 f0       	breq	.+60     	; 0x45c <OS_Abort+0x9c>
 420:	30 93 02 01 	sts	0x0102, r19
 424:	2a e0       	ldi	r18, 0x0A	; 10
 426:	6f e7       	ldi	r22, 0x7F	; 127
 428:	78 e3       	ldi	r23, 0x38	; 56
 42a:	51 e0       	ldi	r21, 0x01	; 1
 42c:	61 50       	subi	r22, 0x01	; 1
 42e:	70 40       	sbci	r23, 0x00	; 0
 430:	50 40       	sbci	r21, 0x00	; 0
 432:	e1 f7       	brne	.-8      	; 0x42c <OS_Abort+0x6c>
 434:	00 c0       	rjmp	.+0      	; 0x436 <OS_Abort+0x76>
 436:	00 00       	nop
 438:	21 50       	subi	r18, 0x01	; 1
 43a:	a9 f7       	brne	.-22     	; 0x426 <OS_Abort+0x66>
 43c:	10 92 02 01 	sts	0x0102, r1
 440:	2a e0       	ldi	r18, 0x0A	; 10
 442:	6f e7       	ldi	r22, 0x7F	; 127
 444:	78 e3       	ldi	r23, 0x38	; 56
 446:	51 e0       	ldi	r21, 0x01	; 1
 448:	61 50       	subi	r22, 0x01	; 1
 44a:	70 40       	sbci	r23, 0x00	; 0
 44c:	50 40       	sbci	r21, 0x00	; 0
 44e:	e1 f7       	brne	.-8      	; 0x448 <OS_Abort+0x88>
 450:	00 c0       	rjmp	.+0      	; 0x452 <OS_Abort+0x92>
 452:	00 00       	nop
 454:	21 50       	subi	r18, 0x01	; 1
 456:	a9 f7       	brne	.-22     	; 0x442 <OS_Abort+0x82>
 458:	9f 5f       	subi	r25, 0xFF	; 255
 45a:	e0 cf       	rjmp	.-64     	; 0x41c <OS_Abort+0x5c>
 45c:	94 e1       	ldi	r25, 0x14	; 20
 45e:	6f e7       	ldi	r22, 0x7F	; 127
 460:	78 e3       	ldi	r23, 0x38	; 56
 462:	21 e0       	ldi	r18, 0x01	; 1
 464:	61 50       	subi	r22, 0x01	; 1
 466:	70 40       	sbci	r23, 0x00	; 0
 468:	20 40       	sbci	r18, 0x00	; 0
 46a:	e1 f7       	brne	.-8      	; 0x464 <OS_Abort+0xa4>
 46c:	00 c0       	rjmp	.+0      	; 0x46e <OS_Abort+0xae>
 46e:	00 00       	nop
 470:	91 50       	subi	r25, 0x01	; 1
 472:	a9 f7       	brne	.-22     	; 0x45e <OS_Abort+0x9e>
 474:	b7 cf       	rjmp	.-146    	; 0x3e4 <OS_Abort+0x24>

00000476 <_ZL18kernel_create_taskv>:
 476:	80 91 31 02 	lds	r24, 0x0231
 47a:	90 91 32 02 	lds	r25, 0x0232
 47e:	89 2b       	or	r24, r25
 480:	09 f4       	brne	.+2      	; 0x484 <_ZL18kernel_create_taskv+0xe>
 482:	b5 c0       	rjmp	.+362    	; 0x5ee <_ZL18kernel_create_taskv+0x178>
 484:	80 91 3b 02 	lds	r24, 0x023B
 488:	82 30       	cpi	r24, 0x02	; 2
 48a:	f9 f4       	brne	.+62     	; 0x4ca <_ZL18kernel_create_taskv+0x54>
 48c:	80 91 42 02 	lds	r24, 0x0242
 490:	90 91 43 02 	lds	r25, 0x0243
 494:	89 2b       	or	r24, r25
 496:	09 f4       	brne	.+2      	; 0x49a <_ZL18kernel_create_taskv+0x24>
 498:	b0 c0       	rjmp	.+352    	; 0x5fa <_ZL18kernel_create_taskv+0x184>
 49a:	80 91 40 02 	lds	r24, 0x0240
 49e:	90 91 41 02 	lds	r25, 0x0241
 4a2:	89 2b       	or	r24, r25
 4a4:	09 f4       	brne	.+2      	; 0x4a8 <_ZL18kernel_create_taskv+0x32>
 4a6:	a9 c0       	rjmp	.+338    	; 0x5fa <_ZL18kernel_create_taskv+0x184>
 4a8:	80 91 44 02 	lds	r24, 0x0244
 4ac:	90 91 45 02 	lds	r25, 0x0245
 4b0:	20 91 42 02 	lds	r18, 0x0242
 4b4:	30 91 43 02 	lds	r19, 0x0243
 4b8:	80 91 40 02 	lds	r24, 0x0240
 4bc:	90 91 41 02 	lds	r25, 0x0241
 4c0:	82 17       	cp	r24, r18
 4c2:	93 07       	cpc	r25, r19
 4c4:	10 f4       	brcc	.+4      	; 0x4ca <_ZL18kernel_create_taskv+0x54>
 4c6:	83 e0       	ldi	r24, 0x03	; 3
 4c8:	99 c0       	rjmp	.+306    	; 0x5fc <_ZL18kernel_create_taskv+0x186>
 4ca:	80 91 3b 02 	lds	r24, 0x023B
 4ce:	88 23       	and	r24, r24
 4d0:	29 f0       	breq	.+10     	; 0x4dc <_ZL18kernel_create_taskv+0x66>
 4d2:	81 e3       	ldi	r24, 0x31	; 49
 4d4:	92 e0       	ldi	r25, 0x02	; 2
 4d6:	f9 de       	rcall	.-526    	; 0x2ca <_ZL7dequeueP7queue_t.isra.1>
 4d8:	bc 01       	movw	r22, r24
 4da:	02 c0       	rjmp	.+4      	; 0x4e0 <_ZL18kernel_create_taskv+0x6a>
 4dc:	67 ee       	ldi	r22, 0xE7	; 231
 4de:	7a e0       	ldi	r23, 0x0A	; 10
 4e0:	fb 01       	movw	r30, r22
 4e2:	e7 52       	subi	r30, 0x27	; 39
 4e4:	ff 4f       	sbci	r31, 0xFF	; 255
 4e6:	10 82       	st	Z, r1
 4e8:	80 e8       	ldi	r24, 0x80	; 128
 4ea:	7e 96       	adiw	r30, 0x1e	; 30
 4ec:	80 83       	st	Z, r24
 4ee:	33 96       	adiw	r30, 0x03	; 3
 4f0:	10 82       	st	Z, r1
 4f2:	80 91 37 02 	lds	r24, 0x0237
 4f6:	90 91 38 02 	lds	r25, 0x0238
 4fa:	31 96       	adiw	r30, 0x01	; 1
 4fc:	90 83       	st	Z, r25
 4fe:	80 91 37 02 	lds	r24, 0x0237
 502:	90 91 38 02 	lds	r25, 0x0238
 506:	31 96       	adiw	r30, 0x01	; 1
 508:	80 83       	st	Z, r24
 50a:	31 96       	adiw	r30, 0x01	; 1
 50c:	10 82       	st	Z, r1
 50e:	8b e5       	ldi	r24, 0x5B	; 91
 510:	91 e0       	ldi	r25, 0x01	; 1
 512:	31 96       	adiw	r30, 0x01	; 1
 514:	90 83       	st	Z, r25
 516:	31 96       	adiw	r30, 0x01	; 1
 518:	80 83       	st	Z, r24
 51a:	31 96       	adiw	r30, 0x01	; 1
 51c:	cb 01       	movw	r24, r22
 51e:	89 52       	subi	r24, 0x29	; 41
 520:	9f 4f       	sbci	r25, 0xFF	; 255
 522:	91 83       	std	Z+1, r25	; 0x01
 524:	80 83       	st	Z, r24
 526:	82 e0       	ldi	r24, 0x02	; 2
 528:	3c 96       	adiw	r30, 0x0c	; 12
 52a:	80 83       	st	Z, r24
 52c:	80 91 39 02 	lds	r24, 0x0239
 530:	90 91 3a 02 	lds	r25, 0x023A
 534:	31 96       	adiw	r30, 0x01	; 1
 536:	91 83       	std	Z+1, r25	; 0x01
 538:	80 83       	st	Z, r24
 53a:	80 91 3b 02 	lds	r24, 0x023B
 53e:	32 96       	adiw	r30, 0x02	; 2
 540:	80 83       	st	Z, r24
 542:	80 91 40 02 	lds	r24, 0x0240
 546:	90 91 41 02 	lds	r25, 0x0241
 54a:	39 97       	sbiw	r30, 0x09	; 9
 54c:	91 83       	std	Z+1, r25	; 0x01
 54e:	80 83       	st	Z, r24
 550:	80 91 42 02 	lds	r24, 0x0242
 554:	90 91 43 02 	lds	r25, 0x0243
 558:	32 96       	adiw	r30, 0x02	; 2
 55a:	91 83       	std	Z+1, r25	; 0x01
 55c:	80 83       	st	Z, r24
 55e:	80 91 44 02 	lds	r24, 0x0244
 562:	90 91 45 02 	lds	r25, 0x0245
 566:	32 96       	adiw	r30, 0x02	; 2
 568:	91 83       	std	Z+1, r25	; 0x01
 56a:	80 83       	st	Z, r24
 56c:	80 91 3c 02 	lds	r24, 0x023C
 570:	90 91 3d 02 	lds	r25, 0x023D
 574:	38 97       	sbiw	r30, 0x08	; 8
 576:	91 83       	std	Z+1, r25	; 0x01
 578:	80 83       	st	Z, r24
 57a:	80 91 3e 02 	lds	r24, 0x023E
 57e:	90 91 3f 02 	lds	r25, 0x023F
 582:	32 96       	adiw	r30, 0x02	; 2
 584:	91 83       	std	Z+1, r25	; 0x01
 586:	80 83       	st	Z, r24
 588:	80 91 3b 02 	lds	r24, 0x023B
 58c:	82 30       	cpi	r24, 0x02	; 2
 58e:	51 f0       	breq	.+20     	; 0x5a4 <_ZL18kernel_create_taskv+0x12e>
 590:	83 30       	cpi	r24, 0x03	; 3
 592:	29 f0       	breq	.+10     	; 0x59e <_ZL18kernel_create_taskv+0x128>
 594:	81 30       	cpi	r24, 0x01	; 1
 596:	71 f5       	brne	.+92     	; 0x5f4 <_ZL18kernel_create_taskv+0x17e>
 598:	8d e2       	ldi	r24, 0x2D	; 45
 59a:	92 e0       	ldi	r25, 0x02	; 2
 59c:	26 c0       	rjmp	.+76     	; 0x5ea <_ZL18kernel_create_taskv+0x174>
 59e:	85 e2       	ldi	r24, 0x25	; 37
 5a0:	92 e0       	ldi	r25, 0x02	; 2
 5a2:	23 c0       	rjmp	.+70     	; 0x5ea <_ZL18kernel_create_taskv+0x174>
 5a4:	fb 01       	movw	r30, r22
 5a6:	e0 5f       	subi	r30, 0xF0	; 240
 5a8:	fe 4f       	sbci	r31, 0xFE	; 254
 5aa:	11 82       	std	Z+1, r1	; 0x01
 5ac:	10 82       	st	Z, r1
 5ae:	80 91 29 02 	lds	r24, 0x0229
 5b2:	90 91 2a 02 	lds	r25, 0x022A
 5b6:	32 96       	adiw	r30, 0x02	; 2
 5b8:	89 2b       	or	r24, r25
 5ba:	39 f4       	brne	.+14     	; 0x5ca <_ZL18kernel_create_taskv+0x154>
 5bc:	11 82       	std	Z+1, r1	; 0x01
 5be:	10 82       	st	Z, r1
 5c0:	70 93 2a 02 	sts	0x022A, r23
 5c4:	60 93 29 02 	sts	0x0229, r22
 5c8:	0b c0       	rjmp	.+22     	; 0x5e0 <_ZL18kernel_create_taskv+0x16a>
 5ca:	80 91 2b 02 	lds	r24, 0x022B
 5ce:	90 91 2c 02 	lds	r25, 0x022C
 5d2:	dc 01       	movw	r26, r24
 5d4:	a0 5f       	subi	r26, 0xF0	; 240
 5d6:	be 4f       	sbci	r27, 0xFE	; 254
 5d8:	6d 93       	st	X+, r22
 5da:	7c 93       	st	X, r23
 5dc:	91 83       	std	Z+1, r25	; 0x01
 5de:	80 83       	st	Z, r24
 5e0:	70 93 2c 02 	sts	0x022C, r23
 5e4:	60 93 2b 02 	sts	0x022B, r22
 5e8:	05 c0       	rjmp	.+10     	; 0x5f4 <_ZL18kernel_create_taskv+0x17e>
 5ea:	4f de       	rcall	.-866    	; 0x28a <_ZL7enqueueP7queue_tP9td_struct>
 5ec:	03 c0       	rjmp	.+6      	; 0x5f4 <_ZL18kernel_create_taskv+0x17e>
 5ee:	80 e0       	ldi	r24, 0x00	; 0
 5f0:	90 e0       	ldi	r25, 0x00	; 0
 5f2:	08 95       	ret
 5f4:	81 e0       	ldi	r24, 0x01	; 1
 5f6:	90 e0       	ldi	r25, 0x00	; 0
 5f8:	08 95       	ret
 5fa:	84 e0       	ldi	r24, 0x04	; 4
 5fc:	80 93 00 02 	sts	0x0200, r24
 600:	df de       	rcall	.-578    	; 0x3c0 <OS_Abort>

00000602 <_Z7OS_Initv>:
 602:	cf 93       	push	r28
 604:	df 93       	push	r29
 606:	1f 92       	push	r1
 608:	cd b7       	in	r28, 0x3d	; 61
 60a:	de b7       	in	r29, 0x3e	; 62
 60c:	80 91 81 00 	lds	r24, 0x0081
 610:	82 60       	ori	r24, 0x02	; 2
 612:	80 93 81 00 	sts	0x0081, r24
 616:	e3 e5       	ldi	r30, 0x53	; 83
 618:	f3 e0       	ldi	r31, 0x03	; 3
 61a:	a0 e1       	ldi	r26, 0x10	; 16
 61c:	b2 e0       	ldi	r27, 0x02	; 2
 61e:	10 82       	st	Z, r1
 620:	1d 92       	st	X+, r1
 622:	1d 92       	st	X+, r1
 624:	cf 01       	movw	r24, r30
 626:	08 96       	adiw	r24, 0x08	; 8
 628:	95 83       	std	Z+5, r25	; 0x05
 62a:	84 83       	std	Z+4, r24	; 0x04
 62c:	ec 5e       	subi	r30, 0xEC	; 236
 62e:	fe 4f       	sbci	r31, 0xFE	; 254
 630:	2a e0       	ldi	r18, 0x0A	; 10
 632:	ef 3d       	cpi	r30, 0xDF	; 223
 634:	f2 07       	cpc	r31, r18
 636:	99 f7       	brne	.-26     	; 0x61e <_Z7OS_Initv+0x1c>
 638:	10 92 e4 0a 	sts	0x0AE4, r1
 63c:	10 92 e3 0a 	sts	0x0AE3, r1
 640:	07 e4       	ldi	r16, 0x47	; 71
 642:	12 e0       	ldi	r17, 0x02	; 2
 644:	10 93 32 02 	sts	0x0232, r17
 648:	00 93 31 02 	sts	0x0231, r16
 64c:	83 ed       	ldi	r24, 0xD3	; 211
 64e:	99 e0       	ldi	r25, 0x09	; 9
 650:	90 93 34 02 	sts	0x0234, r25
 654:	80 93 33 02 	sts	0x0233, r24
 658:	82 e9       	ldi	r24, 0x92	; 146
 65a:	90 e0       	ldi	r25, 0x00	; 0
 65c:	90 93 38 02 	sts	0x0238, r25
 660:	80 93 37 02 	sts	0x0237, r24
 664:	10 92 3b 02 	sts	0x023B, r1
 668:	06 df       	rcall	.-500    	; 0x476 <_ZL18kernel_create_taskv>
 66a:	8c e1       	ldi	r24, 0x1C	; 28
 66c:	95 e0       	ldi	r25, 0x05	; 5
 66e:	90 93 38 02 	sts	0x0238, r25
 672:	80 93 37 02 	sts	0x0237, r24
 676:	83 e0       	ldi	r24, 0x03	; 3
 678:	80 93 3b 02 	sts	0x023B, r24
 67c:	fc de       	rcall	.-520    	; 0x476 <_ZL18kernel_create_taskv>
 67e:	10 93 fe 0b 	sts	0x0BFE, r17
 682:	00 93 fd 0b 	sts	0x0BFD, r16
 686:	81 e0       	ldi	r24, 0x01	; 1
 688:	80 93 53 03 	sts	0x0353, r24
 68c:	85 e2       	ldi	r24, 0x25	; 37
 68e:	92 e0       	ldi	r25, 0x02	; 2
 690:	1c de       	rcall	.-968    	; 0x2ca <_ZL7dequeueP7queue_t.isra.1>
 692:	80 91 6f 00 	lds	r24, 0x006F
 696:	82 60       	ori	r24, 0x02	; 2
 698:	80 93 6f 00 	sts	0x006F, r24
 69c:	80 e1       	ldi	r24, 0x10	; 16
 69e:	97 e2       	ldi	r25, 0x27	; 39
 6a0:	90 93 89 00 	sts	0x0089, r25
 6a4:	80 93 88 00 	sts	0x0088, r24
 6a8:	10 92 85 00 	sts	0x0085, r1
 6ac:	10 92 84 00 	sts	0x0084, r1
 6b0:	82 e0       	ldi	r24, 0x02	; 2
 6b2:	86 bb       	out	0x16, r24	; 22
 6b4:	ee 24       	eor	r14, r14
 6b6:	e3 94       	inc	r14
 6b8:	07 ee       	ldi	r16, 0xE7	; 231
 6ba:	1a e0       	ldi	r17, 0x0A	; 10
 6bc:	82 e0       	ldi	r24, 0x02	; 2
 6be:	f8 2e       	mov	r15, r24
 6c0:	80 91 fd 0b 	lds	r24, 0x0BFD
 6c4:	90 91 fe 0b 	lds	r25, 0x0BFE
 6c8:	fc 01       	movw	r30, r24
 6ca:	e4 5f       	subi	r30, 0xF4	; 244
 6cc:	fe 4f       	sbci	r31, 0xFE	; 254
 6ce:	20 81       	ld	r18, Z
 6d0:	21 30       	cpi	r18, 0x01	; 1
 6d2:	21 f4       	brne	.+8      	; 0x6dc <_Z7OS_Initv+0xda>
 6d4:	87 5e       	subi	r24, 0xE7	; 231
 6d6:	9a 40       	sbci	r25, 0x0A	; 10
 6d8:	09 f0       	breq	.+2      	; 0x6dc <_Z7OS_Initv+0xda>
 6da:	57 c0       	rjmp	.+174    	; 0x78a <_Z7OS_Initv+0x188>
 6dc:	80 91 25 02 	lds	r24, 0x0225
 6e0:	90 91 26 02 	lds	r25, 0x0226
 6e4:	89 2b       	or	r24, r25
 6e6:	19 f0       	breq	.+6      	; 0x6ee <_Z7OS_Initv+0xec>
 6e8:	85 e2       	ldi	r24, 0x25	; 37
 6ea:	92 e0       	ldi	r25, 0x02	; 2
 6ec:	3d c0       	rjmp	.+122    	; 0x768 <_Z7OS_Initv+0x166>
 6ee:	80 91 29 02 	lds	r24, 0x0229
 6f2:	90 91 2a 02 	lds	r25, 0x022A
 6f6:	00 97       	sbiw	r24, 0x00	; 0
 6f8:	79 f1       	breq	.+94     	; 0x758 <_Z7OS_Initv+0x156>
 6fa:	20 e0       	ldi	r18, 0x00	; 0
 6fc:	30 e0       	ldi	r19, 0x00	; 0
 6fe:	40 e0       	ldi	r20, 0x00	; 0
 700:	50 e0       	ldi	r21, 0x00	; 0
 702:	fc 01       	movw	r30, r24
 704:	ee 5f       	subi	r30, 0xFE	; 254
 706:	fe 4f       	sbci	r31, 0xFE	; 254
 708:	60 81       	ld	r22, Z
 70a:	71 81       	ldd	r23, Z+1	; 0x01
 70c:	67 2b       	or	r22, r23
 70e:	81 f4       	brne	.+32     	; 0x730 <_Z7OS_Initv+0x12e>
 710:	dc 01       	movw	r26, r24
 712:	aa 5f       	subi	r26, 0xFA	; 250
 714:	be 4f       	sbci	r27, 0xFE	; 254
 716:	2d 91       	ld	r18, X+
 718:	3c 91       	ld	r19, X
 71a:	31 83       	std	Z+1, r19	; 0x01
 71c:	20 83       	st	Z, r18
 71e:	36 96       	adiw	r30, 0x06	; 6
 720:	20 81       	ld	r18, Z
 722:	31 81       	ldd	r19, Z+1	; 0x01
 724:	34 97       	sbiw	r30, 0x04	; 4
 726:	31 83       	std	Z+1, r19	; 0x01
 728:	20 83       	st	Z, r18
 72a:	4f 5f       	subi	r20, 0xFF	; 255
 72c:	5f 4f       	sbci	r21, 0xFF	; 255
 72e:	9c 01       	movw	r18, r24
 730:	42 30       	cpi	r20, 0x02	; 2
 732:	51 05       	cpc	r21, r1
 734:	14 f0       	brlt	.+4      	; 0x73a <_Z7OS_Initv+0x138>
 736:	8b e0       	ldi	r24, 0x0B	; 11
 738:	66 c0       	rjmp	.+204    	; 0x806 <_Z7OS_Initv+0x204>
 73a:	fc 01       	movw	r30, r24
 73c:	e0 5f       	subi	r30, 0xF0	; 240
 73e:	fe 4f       	sbci	r31, 0xFE	; 254
 740:	80 81       	ld	r24, Z
 742:	91 81       	ldd	r25, Z+1	; 0x01
 744:	00 97       	sbiw	r24, 0x00	; 0
 746:	e9 f6       	brne	.-70     	; 0x702 <_Z7OS_Initv+0x100>
 748:	21 15       	cp	r18, r1
 74a:	31 05       	cpc	r19, r1
 74c:	29 f0       	breq	.+10     	; 0x758 <_Z7OS_Initv+0x156>
 74e:	30 93 fe 0b 	sts	0x0BFE, r19
 752:	20 93 fd 0b 	sts	0x0BFD, r18
 756:	12 c0       	rjmp	.+36     	; 0x77c <_Z7OS_Initv+0x17a>
 758:	80 91 2d 02 	lds	r24, 0x022D
 75c:	90 91 2e 02 	lds	r25, 0x022E
 760:	89 2b       	or	r24, r25
 762:	41 f0       	breq	.+16     	; 0x774 <_Z7OS_Initv+0x172>
 764:	8d e2       	ldi	r24, 0x2D	; 45
 766:	92 e0       	ldi	r25, 0x02	; 2
 768:	b0 dd       	rcall	.-1184   	; 0x2ca <_ZL7dequeueP7queue_t.isra.1>
 76a:	90 93 fe 0b 	sts	0x0BFE, r25
 76e:	80 93 fd 0b 	sts	0x0BFD, r24
 772:	04 c0       	rjmp	.+8      	; 0x77c <_Z7OS_Initv+0x17a>
 774:	10 93 fe 0b 	sts	0x0BFE, r17
 778:	00 93 fd 0b 	sts	0x0BFD, r16
 77c:	e0 91 fd 0b 	lds	r30, 0x0BFD
 780:	f0 91 fe 0b 	lds	r31, 0x0BFE
 784:	e4 5f       	subi	r30, 0xF4	; 244
 786:	fe 4f       	sbci	r31, 0xFE	; 254
 788:	e0 82       	st	Z, r14
 78a:	cd dc       	rcall	.-1638   	; 0x126 <_ZL11exit_kernelv>
 78c:	20 91 46 02 	lds	r18, 0x0246
 790:	22 30       	cpi	r18, 0x02	; 2
 792:	09 f4       	brne	.+2      	; 0x796 <_Z7OS_Initv+0x194>
 794:	5b c0       	rjmp	.+182    	; 0x84c <_Z7OS_Initv+0x24a>
 796:	c0 90 fd 0b 	lds	r12, 0x0BFD
 79a:	d0 90 fe 0b 	lds	r13, 0x0BFE
 79e:	23 30       	cpi	r18, 0x03	; 3
 7a0:	30 f4       	brcc	.+12     	; 0x7ae <_Z7OS_Initv+0x1ac>
 7a2:	22 23       	and	r18, r18
 7a4:	09 f4       	brne	.+2      	; 0x7a8 <_Z7OS_Initv+0x1a6>
 7a6:	ec c0       	rjmp	.+472    	; 0x980 <_Z7OS_Initv+0x37e>
 7a8:	21 30       	cpi	r18, 0x01	; 1
 7aa:	51 f0       	breq	.+20     	; 0x7c0 <_Z7OS_Initv+0x1be>
 7ac:	e1 c0       	rjmp	.+450    	; 0x970 <_Z7OS_Initv+0x36e>
 7ae:	24 30       	cpi	r18, 0x04	; 4
 7b0:	09 f4       	brne	.+2      	; 0x7b4 <_Z7OS_Initv+0x1b2>
 7b2:	c9 c0       	rjmp	.+402    	; 0x946 <_Z7OS_Initv+0x344>
 7b4:	08 f4       	brcc	.+2      	; 0x7b8 <_Z7OS_Initv+0x1b6>
 7b6:	6a c0       	rjmp	.+212    	; 0x88c <_Z7OS_Initv+0x28a>
 7b8:	25 30       	cpi	r18, 0x05	; 5
 7ba:	09 f4       	brne	.+2      	; 0x7be <_Z7OS_Initv+0x1bc>
 7bc:	e1 c0       	rjmp	.+450    	; 0x980 <_Z7OS_Initv+0x37e>
 7be:	d8 c0       	rjmp	.+432    	; 0x970 <_Z7OS_Initv+0x36e>
 7c0:	80 91 84 00 	lds	r24, 0x0084
 7c4:	90 91 85 00 	lds	r25, 0x0085
 7c8:	90 93 23 02 	sts	0x0223, r25
 7cc:	80 93 22 02 	sts	0x0222, r24
 7d0:	80 91 24 02 	lds	r24, 0x0224
 7d4:	8f 5f       	subi	r24, 0xFF	; 255
 7d6:	80 93 24 02 	sts	0x0224, r24
 7da:	f6 01       	movw	r30, r12
 7dc:	e1 5f       	subi	r30, 0xF1	; 241
 7de:	fe 4f       	sbci	r31, 0xFE	; 254
 7e0:	40 81       	ld	r20, Z
 7e2:	42 30       	cpi	r20, 0x02	; 2
 7e4:	99 f4       	brne	.+38     	; 0x80c <_Z7OS_Initv+0x20a>
 7e6:	33 97       	sbiw	r30, 0x03	; 3
 7e8:	80 81       	ld	r24, Z
 7ea:	81 30       	cpi	r24, 0x01	; 1
 7ec:	79 f4       	brne	.+30     	; 0x80c <_Z7OS_Initv+0x20a>
 7ee:	38 97       	sbiw	r30, 0x08	; 8
 7f0:	80 81       	ld	r24, Z
 7f2:	91 81       	ldd	r25, Z+1	; 0x01
 7f4:	01 97       	sbiw	r24, 0x01	; 1
 7f6:	91 83       	std	Z+1, r25	; 0x01
 7f8:	80 83       	st	Z, r24
 7fa:	34 96       	adiw	r30, 0x04	; 4
 7fc:	80 81       	ld	r24, Z
 7fe:	91 81       	ldd	r25, Z+1	; 0x01
 800:	89 2b       	or	r24, r25
 802:	21 f4       	brne	.+8      	; 0x80c <_Z7OS_Initv+0x20a>
 804:	88 e0       	ldi	r24, 0x08	; 8
 806:	80 93 00 02 	sts	0x0200, r24
 80a:	da dd       	rcall	.-1100   	; 0x3c0 <OS_Abort>
 80c:	80 91 29 02 	lds	r24, 0x0229
 810:	90 91 2a 02 	lds	r25, 0x022A
 814:	00 97       	sbiw	r24, 0x00	; 0
 816:	69 f0       	breq	.+26     	; 0x832 <_Z7OS_Initv+0x230>
 818:	fc 01       	movw	r30, r24
 81a:	ee 5f       	subi	r30, 0xFE	; 254
 81c:	fe 4f       	sbci	r31, 0xFE	; 254
 81e:	20 81       	ld	r18, Z
 820:	31 81       	ldd	r19, Z+1	; 0x01
 822:	21 50       	subi	r18, 0x01	; 1
 824:	31 09       	sbc	r19, r1
 826:	31 83       	std	Z+1, r19	; 0x01
 828:	20 83       	st	Z, r18
 82a:	3e 96       	adiw	r30, 0x0e	; 14
 82c:	80 81       	ld	r24, Z
 82e:	91 81       	ldd	r25, Z+1	; 0x01
 830:	f1 cf       	rjmp	.-30     	; 0x814 <_Z7OS_Initv+0x212>
 832:	41 30       	cpi	r20, 0x01	; 1
 834:	09 f0       	breq	.+2      	; 0x838 <_Z7OS_Initv+0x236>
 836:	a4 c0       	rjmp	.+328    	; 0x980 <_Z7OS_Initv+0x37e>
 838:	f6 01       	movw	r30, r12
 83a:	e4 5f       	subi	r30, 0xF4	; 244
 83c:	fe 4f       	sbci	r31, 0xFE	; 254
 83e:	80 81       	ld	r24, Z
 840:	81 30       	cpi	r24, 0x01	; 1
 842:	09 f0       	breq	.+2      	; 0x846 <_Z7OS_Initv+0x244>
 844:	9d c0       	rjmp	.+314    	; 0x980 <_Z7OS_Initv+0x37e>
 846:	f0 82       	st	Z, r15
 848:	b6 01       	movw	r22, r12
 84a:	a7 c0       	rjmp	.+334    	; 0x99a <_Z7OS_Initv+0x398>
 84c:	29 83       	std	Y+1, r18	; 0x01
 84e:	13 de       	rcall	.-986    	; 0x476 <_ZL18kernel_create_taskv>
 850:	90 93 36 02 	sts	0x0236, r25
 854:	80 93 35 02 	sts	0x0235, r24
 858:	80 91 35 02 	lds	r24, 0x0235
 85c:	90 91 36 02 	lds	r25, 0x0236
 860:	29 81       	ldd	r18, Y+1	; 0x01
 862:	89 2b       	or	r24, r25
 864:	89 f0       	breq	.+34     	; 0x888 <_Z7OS_Initv+0x286>
 866:	60 91 fd 0b 	lds	r22, 0x0BFD
 86a:	70 91 fe 0b 	lds	r23, 0x0BFE
 86e:	fb 01       	movw	r30, r22
 870:	e1 5f       	subi	r30, 0xF1	; 241
 872:	fe 4f       	sbci	r31, 0xFE	; 254
 874:	80 81       	ld	r24, Z
 876:	83 30       	cpi	r24, 0x03	; 3
 878:	09 f4       	brne	.+2      	; 0x87c <_Z7OS_Initv+0x27a>
 87a:	82 c0       	rjmp	.+260    	; 0x980 <_Z7OS_Initv+0x37e>
 87c:	90 91 3b 02 	lds	r25, 0x023B
 880:	93 30       	cpi	r25, 0x03	; 3
 882:	09 f0       	breq	.+2      	; 0x886 <_Z7OS_Initv+0x284>
 884:	80 c0       	rjmp	.+256    	; 0x986 <_Z7OS_Initv+0x384>
 886:	76 c0       	rjmp	.+236    	; 0x974 <_Z7OS_Initv+0x372>
 888:	87 e0       	ldi	r24, 0x07	; 7
 88a:	bd cf       	rjmp	.-134    	; 0x806 <_Z7OS_Initv+0x204>
 88c:	f7 ee       	ldi	r31, 0xE7	; 231
 88e:	cf 16       	cp	r12, r31
 890:	fa e0       	ldi	r31, 0x0A	; 10
 892:	df 06       	cpc	r13, r31
 894:	09 f4       	brne	.+2      	; 0x898 <_Z7OS_Initv+0x296>
 896:	74 c0       	rjmp	.+232    	; 0x980 <_Z7OS_Initv+0x37e>
 898:	f6 01       	movw	r30, r12
 89a:	e4 5f       	subi	r30, 0xF4	; 244
 89c:	fe 4f       	sbci	r31, 0xFE	; 254
 89e:	10 82       	st	Z, r1
 8a0:	33 96       	adiw	r30, 0x03	; 3
 8a2:	80 81       	ld	r24, Z
 8a4:	82 30       	cpi	r24, 0x02	; 2
 8a6:	09 f0       	breq	.+2      	; 0x8aa <_Z7OS_Initv+0x2a8>
 8a8:	4a c0       	rjmp	.+148    	; 0x93e <_Z7OS_Initv+0x33c>
 8aa:	20 91 29 02 	lds	r18, 0x0229
 8ae:	30 91 2a 02 	lds	r19, 0x022A
 8b2:	2c 15       	cp	r18, r12
 8b4:	3d 05       	cpc	r19, r13
 8b6:	69 f4       	brne	.+26     	; 0x8d2 <_Z7OS_Initv+0x2d0>
 8b8:	31 96       	adiw	r30, 0x01	; 1
 8ba:	80 81       	ld	r24, Z
 8bc:	91 81       	ldd	r25, Z+1	; 0x01
 8be:	00 97       	sbiw	r24, 0x00	; 0
 8c0:	41 f0       	breq	.+16     	; 0x8d2 <_Z7OS_Initv+0x2d0>
 8c2:	90 93 2a 02 	sts	0x022A, r25
 8c6:	80 93 29 02 	sts	0x0229, r24
 8ca:	fc 01       	movw	r30, r24
 8cc:	ee 5e       	subi	r30, 0xEE	; 238
 8ce:	fe 4f       	sbci	r31, 0xFE	; 254
 8d0:	15 c0       	rjmp	.+42     	; 0x8fc <_Z7OS_Initv+0x2fa>
 8d2:	80 91 2b 02 	lds	r24, 0x022B
 8d6:	90 91 2c 02 	lds	r25, 0x022C
 8da:	f6 01       	movw	r30, r12
 8dc:	ee 5e       	subi	r30, 0xEE	; 238
 8de:	fe 4f       	sbci	r31, 0xFE	; 254
 8e0:	8c 15       	cp	r24, r12
 8e2:	9d 05       	cpc	r25, r13
 8e4:	d1 f4       	brne	.+52     	; 0x91a <_Z7OS_Initv+0x318>
 8e6:	80 81       	ld	r24, Z
 8e8:	91 81       	ldd	r25, Z+1	; 0x01
 8ea:	00 97       	sbiw	r24, 0x00	; 0
 8ec:	51 f0       	breq	.+20     	; 0x902 <_Z7OS_Initv+0x300>
 8ee:	90 93 2c 02 	sts	0x022C, r25
 8f2:	80 93 2b 02 	sts	0x022B, r24
 8f6:	fc 01       	movw	r30, r24
 8f8:	e0 5f       	subi	r30, 0xF0	; 240
 8fa:	fe 4f       	sbci	r31, 0xFE	; 254
 8fc:	11 82       	std	Z+1, r1	; 0x01
 8fe:	10 82       	st	Z, r1
 900:	1e c0       	rjmp	.+60     	; 0x93e <_Z7OS_Initv+0x33c>
 902:	2c 15       	cp	r18, r12
 904:	3d 05       	cpc	r19, r13
 906:	49 f4       	brne	.+18     	; 0x91a <_Z7OS_Initv+0x318>
 908:	10 92 2c 02 	sts	0x022C, r1
 90c:	10 92 2b 02 	sts	0x022B, r1
 910:	10 92 2a 02 	sts	0x022A, r1
 914:	10 92 29 02 	sts	0x0229, r1
 918:	12 c0       	rjmp	.+36     	; 0x93e <_Z7OS_Initv+0x33c>
 91a:	80 81       	ld	r24, Z
 91c:	91 81       	ldd	r25, Z+1	; 0x01
 91e:	fc 01       	movw	r30, r24
 920:	e0 5f       	subi	r30, 0xF0	; 240
 922:	fe 4f       	sbci	r31, 0xFE	; 254
 924:	a0 81       	ld	r26, Z
 926:	b1 81       	ldd	r27, Z+1	; 0x01
 928:	a0 5f       	subi	r26, 0xF0	; 240
 92a:	be 4f       	sbci	r27, 0xFE	; 254
 92c:	2d 91       	ld	r18, X+
 92e:	3c 91       	ld	r19, X
 930:	31 83       	std	Z+1, r19	; 0x01
 932:	20 83       	st	Z, r18
 934:	f9 01       	movw	r30, r18
 936:	ee 5e       	subi	r30, 0xEE	; 238
 938:	fe 4f       	sbci	r31, 0xFE	; 254
 93a:	91 83       	std	Z+1, r25	; 0x01
 93c:	80 83       	st	Z, r24
 93e:	b6 01       	movw	r22, r12
 940:	81 e3       	ldi	r24, 0x31	; 49
 942:	92 e0       	ldi	r25, 0x02	; 2
 944:	2c c0       	rjmp	.+88     	; 0x99e <_Z7OS_Initv+0x39c>
 946:	f6 01       	movw	r30, r12
 948:	e1 5f       	subi	r30, 0xF1	; 241
 94a:	fe 4f       	sbci	r31, 0xFE	; 254
 94c:	80 81       	ld	r24, Z
 94e:	81 30       	cpi	r24, 0x01	; 1
 950:	31 f0       	breq	.+12     	; 0x95e <_Z7OS_Initv+0x35c>
 952:	83 30       	cpi	r24, 0x03	; 3
 954:	41 f4       	brne	.+16     	; 0x966 <_Z7OS_Initv+0x364>
 956:	b6 01       	movw	r22, r12
 958:	85 e2       	ldi	r24, 0x25	; 37
 95a:	92 e0       	ldi	r25, 0x02	; 2
 95c:	03 c0       	rjmp	.+6      	; 0x964 <_Z7OS_Initv+0x362>
 95e:	b6 01       	movw	r22, r12
 960:	8d e2       	ldi	r24, 0x2D	; 45
 962:	92 e0       	ldi	r25, 0x02	; 2
 964:	92 dc       	rcall	.-1756   	; 0x28a <_ZL7enqueueP7queue_tP9td_struct>
 966:	f6 01       	movw	r30, r12
 968:	e4 5f       	subi	r30, 0xF4	; 244
 96a:	fe 4f       	sbci	r31, 0xFE	; 254
 96c:	f0 82       	st	Z, r15
 96e:	08 c0       	rjmp	.+16     	; 0x980 <_Z7OS_Initv+0x37e>
 970:	8f ef       	ldi	r24, 0xFF	; 255
 972:	49 cf       	rjmp	.-366    	; 0x806 <_Z7OS_Initv+0x204>
 974:	fb 01       	movw	r30, r22
 976:	e4 5f       	subi	r30, 0xF4	; 244
 978:	fe 4f       	sbci	r31, 0xFE	; 254
 97a:	20 83       	st	Z, r18
 97c:	81 30       	cpi	r24, 0x01	; 1
 97e:	69 f0       	breq	.+26     	; 0x99a <_Z7OS_Initv+0x398>
 980:	10 92 46 02 	sts	0x0246, r1
 984:	9d ce       	rjmp	.-710    	; 0x6c0 <_Z7OS_Initv+0xbe>
 986:	81 30       	cpi	r24, 0x01	; 1
 988:	d9 f7       	brne	.-10     	; 0x980 <_Z7OS_Initv+0x37e>
 98a:	80 91 3b 02 	lds	r24, 0x023B
 98e:	82 30       	cpi	r24, 0x02	; 2
 990:	b9 f7       	brne	.-18     	; 0x980 <_Z7OS_Initv+0x37e>
 992:	fb 01       	movw	r30, r22
 994:	e4 5f       	subi	r30, 0xF4	; 244
 996:	fe 4f       	sbci	r31, 0xFE	; 254
 998:	80 83       	st	Z, r24
 99a:	8d e2       	ldi	r24, 0x2D	; 45
 99c:	92 e0       	ldi	r25, 0x02	; 2
 99e:	75 dc       	rcall	.-1814   	; 0x28a <_ZL7enqueueP7queue_tP9td_struct>
 9a0:	ef cf       	rjmp	.-34     	; 0x980 <_Z7OS_Initv+0x37e>

000009a2 <Task_Create_Periodic>:
 9a2:	0f 93       	push	r16
 9a4:	1f 93       	push	r17
 9a6:	cf 93       	push	r28
 9a8:	cf b7       	in	r28, 0x3f	; 63
 9aa:	f8 94       	cli
 9ac:	90 93 38 02 	sts	0x0238, r25
 9b0:	80 93 37 02 	sts	0x0237, r24
 9b4:	70 93 3a 02 	sts	0x023A, r23
 9b8:	60 93 39 02 	sts	0x0239, r22
 9bc:	82 e0       	ldi	r24, 0x02	; 2
 9be:	80 93 3b 02 	sts	0x023B, r24
 9c2:	50 93 41 02 	sts	0x0241, r21
 9c6:	40 93 40 02 	sts	0x0240, r20
 9ca:	30 93 43 02 	sts	0x0243, r19
 9ce:	20 93 42 02 	sts	0x0242, r18
 9d2:	10 93 45 02 	sts	0x0245, r17
 9d6:	00 93 44 02 	sts	0x0244, r16
 9da:	10 93 3d 02 	sts	0x023D, r17
 9de:	00 93 3c 02 	sts	0x023C, r16
 9e2:	30 93 3f 02 	sts	0x023F, r19
 9e6:	20 93 3e 02 	sts	0x023E, r18
 9ea:	80 93 46 02 	sts	0x0246, r24
 9ee:	f4 db       	rcall	.-2072   	; 0x1d8 <_ZL12enter_kernelv>
 9f0:	80 91 35 02 	lds	r24, 0x0235
 9f4:	90 91 36 02 	lds	r25, 0x0236
 9f8:	cf bf       	out	0x3f, r28	; 63
 9fa:	cf 91       	pop	r28
 9fc:	1f 91       	pop	r17
 9fe:	0f 91       	pop	r16
 a00:	08 95       	ret

00000a02 <Task_Next>:
 a02:	cf 93       	push	r28
 a04:	df 93       	push	r29
 a06:	1f 92       	push	r1
 a08:	cd b7       	in	r28, 0x3d	; 61
 a0a:	de b7       	in	r29, 0x3e	; 62
 a0c:	8f b7       	in	r24, 0x3f	; 63
 a0e:	89 83       	std	Y+1, r24	; 0x01
 a10:	f8 94       	cli
 a12:	84 e0       	ldi	r24, 0x04	; 4
 a14:	80 93 46 02 	sts	0x0246, r24
 a18:	df db       	rcall	.-2114   	; 0x1d8 <_ZL12enter_kernelv>
 a1a:	89 81       	ldd	r24, Y+1	; 0x01
 a1c:	8f bf       	out	0x3f, r24	; 63
 a1e:	0f 90       	pop	r0
 a20:	df 91       	pop	r29
 a22:	cf 91       	pop	r28
 a24:	08 95       	ret

00000a26 <main>:
int main()
{
    //DDRB = (_BV(PB5));
	//PORTB &= ~_BV(PB5);

	OS_Init();
 a26:	ed dd       	rcall	.-1062   	; 0x602 <_Z7OS_Initv>

00000a28 <_Z18Send_Drive_Commandv>:
		//} 
	//}
//}

void setup(){
	Roomba_Init();
 a28:	60 e0       	ldi	r22, 0x00	; 0
 a2a:	70 e0       	ldi	r23, 0x00	; 0
 a2c:	80 ef       	ldi	r24, 0xF0	; 240
 a2e:	90 e0       	ldi	r25, 0x00	; 0
 a30:	b8 d1       	rcall	.+880    	; 0xda2 <_Z12Roomba_Driveii>
 a32:	e7 df       	rcall	.-50     	; 0xa02 <Task_Next>
 a34:	f9 cf       	rjmp	.-14     	; 0xa28 <_Z18Send_Drive_Commandv>

00000a36 <_Z15radio_rxhandlerh>:
 a36:	08 95       	ret

00000a38 <_Z6r_mainv>:
		Task_Next();
	}
}

int r_main(void)
{
 a38:	0f 93       	push	r16
 a3a:	1f 93       	push	r17
		//} 
	//}
//}

void setup(){
	Roomba_Init();
 a3c:	7d d1       	rcall	.+762    	; 0xd38 <_Z11Roomba_Initv>

int r_main(void)
{
	
	setup();
	Task_Create_Periodic(Send_Drive_Command,0,10,4,5);
 a3e:	05 e0       	ldi	r16, 0x05	; 5
 a40:	10 e0       	ldi	r17, 0x00	; 0
 a42:	24 e0       	ldi	r18, 0x04	; 4
 a44:	30 e0       	ldi	r19, 0x00	; 0
 a46:	4a e0       	ldi	r20, 0x0A	; 10
 a48:	50 e0       	ldi	r21, 0x00	; 0
 a4a:	60 e0       	ldi	r22, 0x00	; 0
 a4c:	70 e0       	ldi	r23, 0x00	; 0
 a4e:	84 e1       	ldi	r24, 0x14	; 20
 a50:	95 e0       	ldi	r25, 0x05	; 5
 a52:	a7 df       	rcall	.-178    	; 0x9a2 <Task_Create_Periodic>
	
	return 1;
}
 a54:	81 e0       	ldi	r24, 0x01	; 1
 a56:	90 e0       	ldi	r25, 0x00	; 0
 a58:	1f 91       	pop	r17
 a5a:	0f 91       	pop	r16
 a5c:	08 95       	ret

00000a5e <_ZL10get_statusv>:
}

void Radio_Flush()
{
	send_instruction(FLUSH_TX, NULL, NULL, 0);
	send_instruction(FLUSH_RX, NULL, NULL, 0);
 a5e:	cf 93       	push	r28
 a60:	df 93       	push	r29
 a62:	c2 e0       	ldi	r28, 0x02	; 2
 a64:	d1 e0       	ldi	r29, 0x01	; 1
 a66:	88 81       	ld	r24, Y
 a68:	8f 7b       	andi	r24, 0xBF	; 191
 a6a:	88 83       	st	Y, r24
 a6c:	8f ef       	ldi	r24, 0xFF	; 255
 a6e:	5e d1       	rcall	.+700    	; 0xd2c <_Z14SPI_Write_Byteh>
 a70:	98 81       	ld	r25, Y
 a72:	90 64       	ori	r25, 0x40	; 64
 a74:	98 83       	st	Y, r25
 a76:	df 91       	pop	r29
 a78:	cf 91       	pop	r28
 a7a:	08 95       	ret

00000a7c <_ZL12set_registerhPhh>:
 a7c:	cf 92       	push	r12
 a7e:	df 92       	push	r13
 a80:	ff 92       	push	r15
 a82:	0f 93       	push	r16
 a84:	1f 93       	push	r17
 a86:	cf 93       	push	r28
 a88:	df 93       	push	r29
 a8a:	1f 92       	push	r1
 a8c:	cd b7       	in	r28, 0x3d	; 61
 a8e:	de b7       	in	r29, 0x3e	; 62
 a90:	8b 01       	movw	r16, r22
 a92:	92 e0       	ldi	r25, 0x02	; 2
 a94:	c9 2e       	mov	r12, r25
 a96:	dd 24       	eor	r13, r13
 a98:	d3 94       	inc	r13
 a9a:	f6 01       	movw	r30, r12
 a9c:	90 81       	ld	r25, Z
 a9e:	9f 7b       	andi	r25, 0xBF	; 191
 aa0:	90 83       	st	Z, r25
 aa2:	8f 71       	andi	r24, 0x1F	; 31
 aa4:	80 62       	ori	r24, 0x20	; 32
 aa6:	49 83       	std	Y+1, r20	; 0x01
 aa8:	41 d1       	rcall	.+642    	; 0xd2c <_Z14SPI_Write_Byteh>
 aaa:	f8 2e       	mov	r15, r24
 aac:	49 81       	ldd	r20, Y+1	; 0x01
 aae:	64 2f       	mov	r22, r20
 ab0:	c8 01       	movw	r24, r16
 ab2:	2f d1       	rcall	.+606    	; 0xd12 <_Z15SPI_Write_BlockPhh>
 ab4:	f6 01       	movw	r30, r12
 ab6:	90 81       	ld	r25, Z
 ab8:	90 64       	ori	r25, 0x40	; 64
 aba:	90 83       	st	Z, r25
 abc:	8f 2d       	mov	r24, r15
 abe:	0f 90       	pop	r0
 ac0:	df 91       	pop	r29
 ac2:	cf 91       	pop	r28
 ac4:	1f 91       	pop	r17
 ac6:	0f 91       	pop	r16
 ac8:	ff 90       	pop	r15
 aca:	df 90       	pop	r13
 acc:	cf 90       	pop	r12
 ace:	08 95       	ret

00000ad0 <_ZL16send_instructionhPhS_h>:
 ad0:	ef 92       	push	r14
 ad2:	ff 92       	push	r15
 ad4:	0f 93       	push	r16
 ad6:	1f 93       	push	r17
 ad8:	cf 93       	push	r28
 ada:	df 93       	push	r29
 adc:	1f 92       	push	r1
 ade:	cd b7       	in	r28, 0x3d	; 61
 ae0:	de b7       	in	r29, 0x3e	; 62
 ae2:	7b 01       	movw	r14, r22
 ae4:	8a 01       	movw	r16, r20
 ae6:	90 91 02 01 	lds	r25, 0x0102
 aea:	9f 7b       	andi	r25, 0xBF	; 191
 aec:	90 93 02 01 	sts	0x0102, r25
 af0:	29 83       	std	Y+1, r18	; 0x01
 af2:	1c d1       	rcall	.+568    	; 0xd2c <_Z14SPI_Write_Byteh>
 af4:	29 81       	ldd	r18, Y+1	; 0x01
 af6:	22 23       	and	r18, r18
 af8:	59 f0       	breq	.+22     	; 0xb10 <_ZL16send_instructionhPhS_h+0x40>
 afa:	01 15       	cp	r16, r1
 afc:	11 05       	cpc	r17, r1
 afe:	21 f4       	brne	.+8      	; 0xb08 <_ZL16send_instructionhPhS_h+0x38>
 b00:	62 2f       	mov	r22, r18
 b02:	c7 01       	movw	r24, r14
 b04:	06 d1       	rcall	.+524    	; 0xd12 <_Z15SPI_Write_BlockPhh>
 b06:	04 c0       	rjmp	.+8      	; 0xb10 <_ZL16send_instructionhPhS_h+0x40>
 b08:	42 2f       	mov	r20, r18
 b0a:	b8 01       	movw	r22, r16
 b0c:	c7 01       	movw	r24, r14
 b0e:	f0 d0       	rcall	.+480    	; 0xcf0 <_Z19SPI_ReadWrite_BlockPhS_h>
 b10:	80 91 02 01 	lds	r24, 0x0102
 b14:	80 64       	ori	r24, 0x40	; 64
 b16:	80 93 02 01 	sts	0x0102, r24
 b1a:	0f 90       	pop	r0
 b1c:	df 91       	pop	r29
 b1e:	cf 91       	pop	r28
 b20:	1f 91       	pop	r17
 b22:	0f 91       	pop	r16
 b24:	ff 90       	pop	r15
 b26:	ef 90       	pop	r14
 b28:	08 95       	ret

00000b2a <_ZL19reset_pipe0_addressv>:
 b2a:	80 91 09 02 	lds	r24, 0x0209
 b2e:	88 23       	and	r24, r24
 b30:	29 f0       	breq	.+10     	; 0xb3c <_ZL19reset_pipe0_addressv+0x12>
 b32:	45 e0       	ldi	r20, 0x05	; 5
 b34:	64 e0       	ldi	r22, 0x04	; 4
 b36:	72 e0       	ldi	r23, 0x02	; 2
 b38:	8a e0       	ldi	r24, 0x0A	; 10
 b3a:	a0 cf       	rjmp	.-192    	; 0xa7c <_ZL12set_registerhPhh>
 b3c:	08 95       	ret

00000b3e <_ZL12get_registerhPhh.constprop.1>:
 b3e:	ef 92       	push	r14
 b40:	ff 92       	push	r15
 b42:	1f 93       	push	r17
 b44:	cf 93       	push	r28
 b46:	df 93       	push	r29
 b48:	1f 92       	push	r1
 b4a:	1f 92       	push	r1
 b4c:	cd b7       	in	r28, 0x3d	; 61
 b4e:	de b7       	in	r29, 0x3e	; 62
 b50:	9f ef       	ldi	r25, 0xFF	; 255
 b52:	fb 01       	movw	r30, r22
 b54:	90 83       	st	Z, r25
 b56:	22 e0       	ldi	r18, 0x02	; 2
 b58:	e2 2e       	mov	r14, r18
 b5a:	ff 24       	eor	r15, r15
 b5c:	f3 94       	inc	r15
 b5e:	f7 01       	movw	r30, r14
 b60:	90 81       	ld	r25, Z
 b62:	9f 7b       	andi	r25, 0xBF	; 191
 b64:	90 83       	st	Z, r25
 b66:	8f 71       	andi	r24, 0x1F	; 31
 b68:	69 83       	std	Y+1, r22	; 0x01
 b6a:	7a 83       	std	Y+2, r23	; 0x02
 b6c:	df d0       	rcall	.+446    	; 0xd2c <_Z14SPI_Write_Byteh>
 b6e:	18 2f       	mov	r17, r24
 b70:	41 e0       	ldi	r20, 0x01	; 1
 b72:	69 81       	ldd	r22, Y+1	; 0x01
 b74:	7a 81       	ldd	r23, Y+2	; 0x02
 b76:	80 e0       	ldi	r24, 0x00	; 0
 b78:	90 e0       	ldi	r25, 0x00	; 0
 b7a:	ba d0       	rcall	.+372    	; 0xcf0 <_Z19SPI_ReadWrite_BlockPhS_h>
 b7c:	f7 01       	movw	r30, r14
 b7e:	90 81       	ld	r25, Z
 b80:	90 64       	ori	r25, 0x40	; 64
 b82:	90 83       	st	Z, r25
 b84:	81 2f       	mov	r24, r17
 b86:	0f 90       	pop	r0
 b88:	0f 90       	pop	r0
 b8a:	df 91       	pop	r29
 b8c:	cf 91       	pop	r28
 b8e:	1f 91       	pop	r17
 b90:	ff 90       	pop	r15
 b92:	ef 90       	pop	r14
 b94:	08 95       	ret

00000b96 <_ZL11set_rx_modev>:
 b96:	cf 93       	push	r28
 b98:	df 93       	push	r29
 b9a:	1f 92       	push	r1
 b9c:	cd b7       	in	r28, 0x3d	; 61
 b9e:	de b7       	in	r29, 0x3e	; 62
 ba0:	be 01       	movw	r22, r28
 ba2:	6f 5f       	subi	r22, 0xFF	; 255
 ba4:	7f 4f       	sbci	r23, 0xFF	; 255
 ba6:	80 e0       	ldi	r24, 0x00	; 0
 ba8:	ca df       	rcall	.-108    	; 0xb3e <_ZL12get_registerhPhh.constprop.1>
 baa:	89 81       	ldd	r24, Y+1	; 0x01
 bac:	80 fd       	sbrc	r24, 0
 bae:	14 c0       	rjmp	.+40     	; 0xbd8 <_ZL11set_rx_modev+0x42>
 bb0:	81 60       	ori	r24, 0x01	; 1
 bb2:	89 83       	std	Y+1, r24	; 0x01
 bb4:	41 e0       	ldi	r20, 0x01	; 1
 bb6:	be 01       	movw	r22, r28
 bb8:	6f 5f       	subi	r22, 0xFF	; 255
 bba:	7f 4f       	sbci	r23, 0xFF	; 255
 bbc:	80 e0       	ldi	r24, 0x00	; 0
 bbe:	5e df       	rcall	.-324    	; 0xa7c <_ZL12set_registerhPhh>
 bc0:	83 e0       	ldi	r24, 0x03	; 3
 bc2:	91 e0       	ldi	r25, 0x01	; 1
 bc4:	01 97       	sbiw	r24, 0x01	; 1
 bc6:	f1 f7       	brne	.-4      	; 0xbc4 <_ZL11set_rx_modev+0x2e>
 bc8:	00 c0       	rjmp	.+0      	; 0xbca <_ZL11set_rx_modev+0x34>
 bca:	00 00       	nop
 bcc:	83 e0       	ldi	r24, 0x03	; 3
 bce:	91 e0       	ldi	r25, 0x01	; 1
 bd0:	01 97       	sbiw	r24, 0x01	; 1
 bd2:	f1 f7       	brne	.-4      	; 0xbd0 <_ZL11set_rx_modev+0x3a>
 bd4:	00 c0       	rjmp	.+0      	; 0xbd6 <_ZL11set_rx_modev+0x40>
 bd6:	00 00       	nop
 bd8:	0f 90       	pop	r0
 bda:	df 91       	pop	r29
 bdc:	cf 91       	pop	r28
 bde:	08 95       	ret

00000be0 <__vector_5>:
}


// Interrupt handler
ISR(INT4_vect)
{
 be0:	1f 92       	push	r1
 be2:	0f 92       	push	r0
 be4:	0f b6       	in	r0, 0x3f	; 63
 be6:	0f 92       	push	r0
 be8:	11 24       	eor	r1, r1
 bea:	0b b6       	in	r0, 0x3b	; 59
 bec:	0f 92       	push	r0
 bee:	2f 93       	push	r18
 bf0:	3f 93       	push	r19
 bf2:	4f 93       	push	r20
 bf4:	5f 93       	push	r21
 bf6:	6f 93       	push	r22
 bf8:	7f 93       	push	r23
 bfa:	8f 93       	push	r24
 bfc:	9f 93       	push	r25
 bfe:	af 93       	push	r26
 c00:	bf 93       	push	r27
 c02:	ef 93       	push	r30
 c04:	ff 93       	push	r31
 c06:	cf 93       	push	r28
 c08:	df 93       	push	r29
 c0a:	1f 92       	push	r1
 c0c:	cd b7       	in	r28, 0x3d	; 61
 c0e:	de b7       	in	r29, 0x3e	; 62
    uint8_t status;
    uint8_t pipe_number;

	DEBUG_2_LOW;
 c10:	80 91 02 01 	lds	r24, 0x0102
 c14:	8f 7e       	andi	r24, 0xEF	; 239
 c16:	80 93 02 01 	sts	0x0102, r24
    CE_LOW();
 c1a:	80 91 02 01 	lds	r24, 0x0102
 c1e:	8f 7d       	andi	r24, 0xDF	; 223
 c20:	80 93 02 01 	sts	0x0102, r24

    status = get_status();
 c24:	1c df       	rcall	.-456    	; 0xa5e <_ZL10get_statusv>
 c26:	89 83       	std	Y+1, r24	; 0x01

    if (status & _BV(RX_DR))
 c28:	86 ff       	sbrs	r24, 6
 c2a:	03 c0       	rjmp	.+6      	; 0xc32 <__vector_5+0x52>
    {
    	pipe_number =  (status & 0xE) >> 1;
 c2c:	8e 70       	andi	r24, 0x0E	; 14
    	radio_rxhandler(pipe_number);
 c2e:	86 95       	lsr	r24
 c30:	02 df       	rcall	.-508    	; 0xa36 <_Z15radio_rxhandlerh>
    }
    // We can get the TX_DS or the MAX_RT interrupt, but not both.
    if (status & _BV(TX_DS))
 c32:	89 81       	ldd	r24, Y+1	; 0x01
 c34:	85 ff       	sbrs	r24, 5
 c36:	1b c0       	rjmp	.+54     	; 0xc6e <__vector_5+0x8e>
    {
        // if there's nothing left to transmit, switch back to receive mode.
        transmit_lock = 0;
 c38:	10 92 ff 0b 	sts	0x0BFF, r1
        reset_pipe0_address();
 c3c:	76 df       	rcall	.-276    	; 0xb2a <_ZL19reset_pipe0_addressv>
        set_rx_mode();
 c3e:	ab df       	rcall	.-170    	; 0xb96 <_ZL11set_rx_modev>

    	// indicate in the history that a packet was transmitted successfully by appending a 1.
    	tx_history <<= 1;
 c40:	80 91 02 02 	lds	r24, 0x0202
 c44:	90 91 03 02 	lds	r25, 0x0203
 c48:	88 0f       	add	r24, r24
 c4a:	99 1f       	adc	r25, r25
 c4c:	90 93 03 02 	sts	0x0203, r25
 c50:	80 93 02 02 	sts	0x0202, r24
    	tx_history |= 1;
 c54:	80 91 02 02 	lds	r24, 0x0202
 c58:	90 91 03 02 	lds	r25, 0x0203
 c5c:	81 60       	ori	r24, 0x01	; 1
 c5e:	90 93 03 02 	sts	0x0203, r25
 c62:	80 93 02 02 	sts	0x0202, r24

    	tx_last_status = RADIO_TX_SUCCESS;
 c66:	81 e0       	ldi	r24, 0x01	; 1
 c68:	80 93 01 02 	sts	0x0201, r24
 c6c:	19 c0       	rjmp	.+50     	; 0xca0 <__vector_5+0xc0>
    }
    else if (status & _BV(MAX_RT))
 c6e:	84 ff       	sbrs	r24, 4
 c70:	17 c0       	rjmp	.+46     	; 0xca0 <__vector_5+0xc0>
    {
        send_instruction(FLUSH_TX, NULL, NULL, 0);
 c72:	20 e0       	ldi	r18, 0x00	; 0
 c74:	40 e0       	ldi	r20, 0x00	; 0
 c76:	50 e0       	ldi	r21, 0x00	; 0
 c78:	60 e0       	ldi	r22, 0x00	; 0
 c7a:	70 e0       	ldi	r23, 0x00	; 0
 c7c:	81 ee       	ldi	r24, 0xE1	; 225
 c7e:	28 df       	rcall	.-432    	; 0xad0 <_ZL16send_instructionhPhS_h>

    	transmit_lock = 0;
 c80:	10 92 ff 0b 	sts	0x0BFF, r1
    	reset_pipe0_address();
 c84:	52 df       	rcall	.-348    	; 0xb2a <_ZL19reset_pipe0_addressv>
		set_rx_mode();
 c86:	87 df       	rcall	.-242    	; 0xb96 <_ZL11set_rx_modev>
    	// indicate in the history that a packet was dropped by appending a 0.
    	tx_history <<= 1;
 c88:	80 91 02 02 	lds	r24, 0x0202
 c8c:	90 91 03 02 	lds	r25, 0x0203
 c90:	88 0f       	add	r24, r24
 c92:	99 1f       	adc	r25, r25
 c94:	90 93 03 02 	sts	0x0203, r25
 c98:	80 93 02 02 	sts	0x0202, r24

    	tx_last_status = RADIO_TX_MAX_RT;
 c9c:	10 92 01 02 	sts	0x0201, r1
    }
	
    // clear the interrupt flags.
	status = _BV(RX_DR) | _BV(TX_DS) | _BV(MAX_RT);
 ca0:	80 e7       	ldi	r24, 0x70	; 112
 ca2:	89 83       	std	Y+1, r24	; 0x01
	set_register(STATUS, &status, 1);
 ca4:	41 e0       	ldi	r20, 0x01	; 1
 ca6:	be 01       	movw	r22, r28
 ca8:	6f 5f       	subi	r22, 0xFF	; 255
 caa:	7f 4f       	sbci	r23, 0xFF	; 255
 cac:	87 e0       	ldi	r24, 0x07	; 7
 cae:	e6 de       	rcall	.-564    	; 0xa7c <_ZL12set_registerhPhh>
	DEBUG_2_HIGH;
 cb0:	80 91 02 01 	lds	r24, 0x0102
 cb4:	80 61       	ori	r24, 0x10	; 16
 cb6:	80 93 02 01 	sts	0x0102, r24
	
    CE_HIGH();
 cba:	80 91 02 01 	lds	r24, 0x0102
 cbe:	80 62       	ori	r24, 0x20	; 32
 cc0:	80 93 02 01 	sts	0x0102, r24
}
 cc4:	0f 90       	pop	r0
 cc6:	df 91       	pop	r29
 cc8:	cf 91       	pop	r28
 cca:	ff 91       	pop	r31
 ccc:	ef 91       	pop	r30
 cce:	bf 91       	pop	r27
 cd0:	af 91       	pop	r26
 cd2:	9f 91       	pop	r25
 cd4:	8f 91       	pop	r24
 cd6:	7f 91       	pop	r23
 cd8:	6f 91       	pop	r22
 cda:	5f 91       	pop	r21
 cdc:	4f 91       	pop	r20
 cde:	3f 91       	pop	r19
 ce0:	2f 91       	pop	r18
 ce2:	0f 90       	pop	r0
 ce4:	0b be       	out	0x3b, r0	; 59
 ce6:	0f 90       	pop	r0
 ce8:	0f be       	out	0x3f, r0	; 63
 cea:	0f 90       	pop	r0
 cec:	1f 90       	pop	r1
 cee:	18 95       	reti

00000cf0 <_Z19SPI_ReadWrite_BlockPhS_h>:

	SPI_PORT &= ~_BV(SPI_SS);
}

void SPI_ReadWrite_Block(uint8_t* data, uint8_t* buffer, uint8_t len)
{
 cf0:	26 2f       	mov	r18, r22
    uint8_t i;
    for (i = 0; i < len; i++) {
 cf2:	fb 01       	movw	r30, r22
 cf4:	3e 2f       	mov	r19, r30
 cf6:	32 1b       	sub	r19, r18
 cf8:	34 17       	cp	r19, r20
 cfa:	50 f4       	brcc	.+20     	; 0xd10 <_Z19SPI_ReadWrite_BlockPhS_h+0x20>
          SPDR = data[i];
 cfc:	dc 01       	movw	r26, r24
 cfe:	3d 91       	ld	r19, X+
 d00:	cd 01       	movw	r24, r26
 d02:	3e bd       	out	0x2e, r19	; 46
          SPI_WAIT();
 d04:	0d b4       	in	r0, 0x2d	; 45
 d06:	07 fe       	sbrs	r0, 7
 d08:	fd cf       	rjmp	.-6      	; 0xd04 <_Z19SPI_ReadWrite_BlockPhS_h+0x14>
          buffer[i] = SPDR;
 d0a:	3e b5       	in	r19, 0x2e	; 46
 d0c:	31 93       	st	Z+, r19
 d0e:	f2 cf       	rjmp	.-28     	; 0xcf4 <_Z19SPI_ReadWrite_BlockPhS_h+0x4>
    }
}
 d10:	08 95       	ret

00000d12 <_Z15SPI_Write_BlockPhh>:

void SPI_Write_Block(uint8_t* data, uint8_t len)
{
 d12:	28 2f       	mov	r18, r24
    uint8_t i;
    for (i = 0; i < len; i++) {
 d14:	fc 01       	movw	r30, r24
 d16:	8e 2f       	mov	r24, r30
 d18:	82 1b       	sub	r24, r18
 d1a:	86 17       	cp	r24, r22
 d1c:	30 f4       	brcc	.+12     	; 0xd2a <_Z15SPI_Write_BlockPhh+0x18>
          SPDR = data[i];
 d1e:	81 91       	ld	r24, Z+
 d20:	8e bd       	out	0x2e, r24	; 46
          SPI_WAIT();
 d22:	0d b4       	in	r0, 0x2d	; 45
 d24:	07 fe       	sbrs	r0, 7
 d26:	fd cf       	rjmp	.-6      	; 0xd22 <_Z15SPI_Write_BlockPhh+0x10>
 d28:	f6 cf       	rjmp	.-20     	; 0xd16 <_Z15SPI_Write_BlockPhh+0x4>
    }
}
 d2a:	08 95       	ret

00000d2c <_Z14SPI_Write_Byteh>:

uint8_t SPI_Write_Byte(uint8_t byte)
{
    SPDR = byte;
 d2c:	8e bd       	out	0x2e, r24	; 46
    SPI_WAIT();
 d2e:	0d b4       	in	r0, 0x2d	; 45
 d30:	07 fe       	sbrs	r0, 7
 d32:	fd cf       	rjmp	.-6      	; 0xd2e <_Z14SPI_Write_Byteh+0x2>
    return SPDR;
 d34:	8e b5       	in	r24, 0x2e	; 46
}
 d36:	08 95       	ret

00000d38 <_Z11Roomba_Initv>:
		sensor_packet->charge.bytes.low_byte = uart_get_byte(7);
		sensor_packet->capacity.bytes.high_byte = uart_get_byte(8);
		sensor_packet->capacity.bytes.low_byte = uart_get_byte(9);
		break;
	}
	uart_reset_receive();
 d38:	51 9a       	sbi	0x0a, 1	; 10
 d3a:	59 98       	cbi	0x0b, 1	; 11
 d3c:	83 e0       	ldi	r24, 0x03	; 3
 d3e:	55 d0       	rcall	.+170    	; 0xdea <_Z16Roomba_UART_Init9_uart_bps>
 d40:	80 e8       	ldi	r24, 0x80	; 128
 d42:	4c d0       	rcall	.+152    	; 0xddc <_Z16Roomba_Send_Byteh>
 d44:	2f ef       	ldi	r18, 0xFF	; 255
 d46:	89 ef       	ldi	r24, 0xF9	; 249
 d48:	90 e0       	ldi	r25, 0x00	; 0
 d4a:	21 50       	subi	r18, 0x01	; 1
 d4c:	80 40       	sbci	r24, 0x00	; 0
 d4e:	90 40       	sbci	r25, 0x00	; 0
 d50:	e1 f7       	brne	.-8      	; 0xd4a <_Z11Roomba_Initv+0x12>
 d52:	00 c0       	rjmp	.+0      	; 0xd54 <_Z11Roomba_Initv+0x1c>
 d54:	00 00       	nop
 d56:	81 e8       	ldi	r24, 0x81	; 129
 d58:	41 d0       	rcall	.+130    	; 0xddc <_Z16Roomba_Send_Byteh>
 d5a:	87 e0       	ldi	r24, 0x07	; 7
 d5c:	3f d0       	rcall	.+126    	; 0xddc <_Z16Roomba_Send_Byteh>
 d5e:	2f ef       	ldi	r18, 0xFF	; 255
 d60:	81 ee       	ldi	r24, 0xE1	; 225
 d62:	94 e0       	ldi	r25, 0x04	; 4
 d64:	21 50       	subi	r18, 0x01	; 1
 d66:	80 40       	sbci	r24, 0x00	; 0
 d68:	90 40       	sbci	r25, 0x00	; 0
 d6a:	e1 f7       	brne	.-8      	; 0xd64 <_Z11Roomba_Initv+0x2c>
 d6c:	00 c0       	rjmp	.+0      	; 0xd6e <_Z11Roomba_Initv+0x36>
 d6e:	00 00       	nop
 d70:	80 e0       	ldi	r24, 0x00	; 0
 d72:	3b d0       	rcall	.+118    	; 0xdea <_Z16Roomba_UART_Init9_uart_bps>
 d74:	80 e8       	ldi	r24, 0x80	; 128
 d76:	32 d0       	rcall	.+100    	; 0xddc <_Z16Roomba_Send_Byteh>
 d78:	2f ef       	ldi	r18, 0xFF	; 255
 d7a:	89 ef       	ldi	r24, 0xF9	; 249
 d7c:	90 e0       	ldi	r25, 0x00	; 0
 d7e:	21 50       	subi	r18, 0x01	; 1
 d80:	80 40       	sbci	r24, 0x00	; 0
 d82:	90 40       	sbci	r25, 0x00	; 0
 d84:	e1 f7       	brne	.-8      	; 0xd7e <_Z11Roomba_Initv+0x46>
 d86:	00 c0       	rjmp	.+0      	; 0xd88 <_Z11Roomba_Initv+0x50>
 d88:	00 00       	nop
 d8a:	83 e8       	ldi	r24, 0x83	; 131
 d8c:	27 d0       	rcall	.+78     	; 0xddc <_Z16Roomba_Send_Byteh>
 d8e:	2f ef       	ldi	r18, 0xFF	; 255
 d90:	89 ef       	ldi	r24, 0xF9	; 249
 d92:	90 e0       	ldi	r25, 0x00	; 0
 d94:	21 50       	subi	r18, 0x01	; 1
 d96:	80 40       	sbci	r24, 0x00	; 0
 d98:	90 40       	sbci	r25, 0x00	; 0
 d9a:	e1 f7       	brne	.-8      	; 0xd94 <_Z11Roomba_Initv+0x5c>
 d9c:	00 c0       	rjmp	.+0      	; 0xd9e <_Z11Roomba_Initv+0x66>
 d9e:	00 00       	nop
 da0:	08 95       	ret

00000da2 <_Z12Roomba_Driveii>:
}

void Roomba_Drive( int16_t velocity, int16_t radius )
{
 da2:	1f 93       	push	r17
 da4:	cf 93       	push	r28
 da6:	df 93       	push	r29
 da8:	00 d0       	rcall	.+0      	; 0xdaa <_Z12Roomba_Driveii+0x8>
 daa:	cd b7       	in	r28, 0x3d	; 61
 dac:	de b7       	in	r29, 0x3e	; 62
 dae:	18 2f       	mov	r17, r24
	Roomba_Send_Byte(DRIVE);
 db0:	89 e8       	ldi	r24, 0x89	; 137
 db2:	6b 83       	std	Y+3, r22	; 0x03
 db4:	7a 83       	std	Y+2, r23	; 0x02
 db6:	99 83       	std	Y+1, r25	; 0x01
 db8:	11 d0       	rcall	.+34     	; 0xddc <_Z16Roomba_Send_Byteh>
	Roomba_Send_Byte(HIGH_BYTE(velocity));
 dba:	99 81       	ldd	r25, Y+1	; 0x01
 dbc:	89 2f       	mov	r24, r25
 dbe:	0e d0       	rcall	.+28     	; 0xddc <_Z16Roomba_Send_Byteh>
	Roomba_Send_Byte(LOW_BYTE(velocity));
 dc0:	81 2f       	mov	r24, r17
 dc2:	0c d0       	rcall	.+24     	; 0xddc <_Z16Roomba_Send_Byteh>
	Roomba_Send_Byte(HIGH_BYTE(radius));
 dc4:	7a 81       	ldd	r23, Y+2	; 0x02
 dc6:	87 2f       	mov	r24, r23
 dc8:	09 d0       	rcall	.+18     	; 0xddc <_Z16Roomba_Send_Byteh>
	Roomba_Send_Byte(LOW_BYTE(radius));
 dca:	6b 81       	ldd	r22, Y+3	; 0x03
 dcc:	86 2f       	mov	r24, r22
}
 dce:	0f 90       	pop	r0
 dd0:	0f 90       	pop	r0
 dd2:	0f 90       	pop	r0
 dd4:	df 91       	pop	r29
 dd6:	cf 91       	pop	r28
 dd8:	1f 91       	pop	r17
{
	Roomba_Send_Byte(DRIVE);
	Roomba_Send_Byte(HIGH_BYTE(velocity));
	Roomba_Send_Byte(LOW_BYTE(velocity));
	Roomba_Send_Byte(HIGH_BYTE(radius));
	Roomba_Send_Byte(LOW_BYTE(radius));
 dda:	00 c0       	rjmp	.+0      	; 0xddc <_Z16Roomba_Send_Byteh>

00000ddc <_Z16Roomba_Send_Byteh>:
	return uart_buffer_index;
}

void uart_reset_receive(void)
{
	uart_buffer_index = 0;
 ddc:	90 91 c8 00 	lds	r25, 0x00C8
 de0:	95 ff       	sbrs	r25, 5
 de2:	fc cf       	rjmp	.-8      	; 0xddc <_Z16Roomba_Send_Byteh>
 de4:	80 93 ce 00 	sts	0x00CE, r24
 de8:	08 95       	ret

00000dea <_Z16Roomba_UART_Init9_uart_bps>:
 dea:	2f b7       	in	r18, 0x3f	; 63
 dec:	f8 94       	cli
 dee:	90 91 65 00 	lds	r25, 0x0065
 df2:	9e 7f       	andi	r25, 0xFE	; 254
 df4:	90 93 65 00 	sts	0x0065, r25
 df8:	81 30       	cpi	r24, 0x01	; 1
 dfa:	59 f0       	breq	.+22     	; 0xe12 <_Z16Roomba_UART_Init9_uart_bps+0x28>
 dfc:	38 f0       	brcs	.+14     	; 0xe0c <_Z16Roomba_UART_Init9_uart_bps+0x22>
 dfe:	82 30       	cpi	r24, 0x02	; 2
 e00:	59 f0       	breq	.+22     	; 0xe18 <_Z16Roomba_UART_Init9_uart_bps+0x2e>
 e02:	83 30       	cpi	r24, 0x03	; 3
 e04:	49 f4       	brne	.+18     	; 0xe18 <_Z16Roomba_UART_Init9_uart_bps+0x2e>
 e06:	88 e0       	ldi	r24, 0x08	; 8
 e08:	90 e0       	ldi	r25, 0x00	; 0
 e0a:	08 c0       	rjmp	.+16     	; 0xe1c <_Z16Roomba_UART_Init9_uart_bps+0x32>
 e0c:	83 e3       	ldi	r24, 0x33	; 51
 e0e:	90 e0       	ldi	r25, 0x00	; 0
 e10:	05 c0       	rjmp	.+10     	; 0xe1c <_Z16Roomba_UART_Init9_uart_bps+0x32>
 e12:	89 e1       	ldi	r24, 0x19	; 25
 e14:	90 e0       	ldi	r25, 0x00	; 0
 e16:	02 c0       	rjmp	.+4      	; 0xe1c <_Z16Roomba_UART_Init9_uart_bps+0x32>
 e18:	80 e1       	ldi	r24, 0x10	; 16
 e1a:	90 e0       	ldi	r25, 0x00	; 0
 e1c:	90 93 cd 00 	sts	0x00CD, r25
 e20:	80 93 cc 00 	sts	0x00CC, r24
 e24:	80 e4       	ldi	r24, 0x40	; 64
 e26:	80 93 c8 00 	sts	0x00C8, r24
 e2a:	88 e0       	ldi	r24, 0x08	; 8
 e2c:	80 93 c9 00 	sts	0x00C9, r24
 e30:	86 e0       	ldi	r24, 0x06	; 6
 e32:	80 93 ca 00 	sts	0x00CA, r24
 e36:	80 91 c8 00 	lds	r24, 0x00C8
 e3a:	8d 7f       	andi	r24, 0xFD	; 253
 e3c:	80 93 c8 00 	sts	0x00C8, r24
 e40:	2f bf       	out	0x3f, r18	; 63
 e42:	08 95       	ret

00000e44 <__vector_36>:

/**
 * UART receive byte ISR
 */
ISR(USART1_RX_vect)
{
 e44:	1f 92       	push	r1
 e46:	0f 92       	push	r0
 e48:	0f b6       	in	r0, 0x3f	; 63
 e4a:	0f 92       	push	r0
 e4c:	11 24       	eor	r1, r1
 e4e:	0b b6       	in	r0, 0x3b	; 59
 e50:	0f 92       	push	r0
 e52:	8f 93       	push	r24
 e54:	9f 93       	push	r25
 e56:	ef 93       	push	r30
 e58:	ff 93       	push	r31
    uart_buffer[uart_buffer_index] = UDR1;
 e5a:	e0 91 00 0c 	lds	r30, 0x0C00
 e5e:	f0 e0       	ldi	r31, 0x00	; 0
 e60:	80 91 ce 00 	lds	r24, 0x00CE
 e64:	ef 5f       	subi	r30, 0xFF	; 255
 e66:	f3 4f       	sbci	r31, 0xF3	; 243
 e68:	80 83       	st	Z, r24
    uart_buffer_index = (uart_buffer_index + 1) % UART_BUFFER_SIZE;
 e6a:	80 91 00 0c 	lds	r24, 0x0C00
 e6e:	90 e0       	ldi	r25, 0x00	; 0
 e70:	01 96       	adiw	r24, 0x01	; 1
 e72:	8f 71       	andi	r24, 0x1F	; 31
 e74:	99 27       	eor	r25, r25
 e76:	80 93 00 0c 	sts	0x0C00, r24
}
 e7a:	ff 91       	pop	r31
 e7c:	ef 91       	pop	r30
 e7e:	9f 91       	pop	r25
 e80:	8f 91       	pop	r24
 e82:	0f 90       	pop	r0
 e84:	0b be       	out	0x3b, r0	; 59
 e86:	0f 90       	pop	r0
 e88:	0f be       	out	0x3f, r0	; 63
 e8a:	0f 90       	pop	r0
 e8c:	1f 90       	pop	r1
 e8e:	18 95       	reti

00000e90 <__vector_23>:
#if defined(__AVR_ATtiny24__) || defined(__AVR_ATtiny44__) || defined(__AVR_ATtiny84__)
ISR(TIM0_OVF_vect)
#else
ISR(TIMER0_OVF_vect)
#endif
{
 e90:	1f 92       	push	r1
 e92:	0f 92       	push	r0
 e94:	0f b6       	in	r0, 0x3f	; 63
 e96:	0f 92       	push	r0
 e98:	11 24       	eor	r1, r1
 e9a:	2f 93       	push	r18
 e9c:	3f 93       	push	r19
 e9e:	8f 93       	push	r24
 ea0:	9f 93       	push	r25
 ea2:	af 93       	push	r26
 ea4:	bf 93       	push	r27
	// copy these to local variables so they can be stored in registers
	// (volatile variables must be read from memory on every access)
	unsigned long m = timer0_millis;
 ea6:	80 91 25 0c 	lds	r24, 0x0C25
 eaa:	90 91 26 0c 	lds	r25, 0x0C26
 eae:	a0 91 27 0c 	lds	r26, 0x0C27
 eb2:	b0 91 28 0c 	lds	r27, 0x0C28
	unsigned char f = timer0_fract;
 eb6:	30 91 29 0c 	lds	r19, 0x0C29

	m += MILLIS_INC;
 eba:	01 96       	adiw	r24, 0x01	; 1
 ebc:	a1 1d       	adc	r26, r1
 ebe:	b1 1d       	adc	r27, r1
	f += FRACT_INC;
 ec0:	23 2f       	mov	r18, r19
 ec2:	2d 5f       	subi	r18, 0xFD	; 253
	if (f >= FRACT_MAX) {
 ec4:	2d 37       	cpi	r18, 0x7D	; 125
 ec6:	20 f0       	brcs	.+8      	; 0xed0 <__vector_23+0x40>
		f -= FRACT_MAX;
 ec8:	2d 57       	subi	r18, 0x7D	; 125
		m += 1;
 eca:	01 96       	adiw	r24, 0x01	; 1
 ecc:	a1 1d       	adc	r26, r1
 ece:	b1 1d       	adc	r27, r1
	}

	timer0_fract = f;
 ed0:	20 93 29 0c 	sts	0x0C29, r18
	timer0_millis = m;
 ed4:	80 93 25 0c 	sts	0x0C25, r24
 ed8:	90 93 26 0c 	sts	0x0C26, r25
 edc:	a0 93 27 0c 	sts	0x0C27, r26
 ee0:	b0 93 28 0c 	sts	0x0C28, r27
	timer0_overflow_count++;
 ee4:	80 91 21 0c 	lds	r24, 0x0C21
 ee8:	90 91 22 0c 	lds	r25, 0x0C22
 eec:	a0 91 23 0c 	lds	r26, 0x0C23
 ef0:	b0 91 24 0c 	lds	r27, 0x0C24
 ef4:	01 96       	adiw	r24, 0x01	; 1
 ef6:	a1 1d       	adc	r26, r1
 ef8:	b1 1d       	adc	r27, r1
 efa:	80 93 21 0c 	sts	0x0C21, r24
 efe:	90 93 22 0c 	sts	0x0C22, r25
 f02:	a0 93 23 0c 	sts	0x0C23, r26
 f06:	b0 93 24 0c 	sts	0x0C24, r27
}
 f0a:	bf 91       	pop	r27
 f0c:	af 91       	pop	r26
 f0e:	9f 91       	pop	r25
 f10:	8f 91       	pop	r24
 f12:	3f 91       	pop	r19
 f14:	2f 91       	pop	r18
 f16:	0f 90       	pop	r0
 f18:	0f be       	out	0x3f, r0	; 63
 f1a:	0f 90       	pop	r0
 f1c:	1f 90       	pop	r1
 f1e:	18 95       	reti

00000f20 <_exit>:
 f20:	f8 94       	cli

00000f22 <__stop_program>:
 f22:	ff cf       	rjmp	.-2      	; 0xf22 <__stop_program>
