
project2.elf:     file format elf32-avr

Sections:
Idx Name          Size      VMA       LMA       File off  Algn
  0 .data         0000000c  00800200  000013e6  0000147a  2**0
                  CONTENTS, ALLOC, LOAD, DATA
  1 .text         000013e6  00000000  00000000  00000094  2**1
                  CONTENTS, ALLOC, LOAD, READONLY, CODE
  2 .bss          00000d1d  0080020c  0080020c  00001486  2**0
                  ALLOC
  3 .comment      0000005c  00000000  00000000  00001486  2**0
                  CONTENTS, READONLY
  4 .debug_aranges 00000188  00000000  00000000  000014e2  2**0
                  CONTENTS, READONLY, DEBUGGING
  5 .debug_info   00001b3b  00000000  00000000  0000166a  2**0
                  CONTENTS, READONLY, DEBUGGING
  6 .debug_abbrev 00000900  00000000  00000000  000031a5  2**0
                  CONTENTS, READONLY, DEBUGGING
  7 .debug_line   00000f89  00000000  00000000  00003aa5  2**0
                  CONTENTS, READONLY, DEBUGGING
  8 .debug_frame  000003e0  00000000  00000000  00004a30  2**2
                  CONTENTS, READONLY, DEBUGGING
  9 .debug_str    00000afe  00000000  00000000  00004e10  2**0
                  CONTENTS, READONLY, DEBUGGING
 10 .debug_loc    00000dca  00000000  00000000  0000590e  2**0
                  CONTENTS, READONLY, DEBUGGING
 11 .debug_ranges 00000190  00000000  00000000  000066d8  2**0
                  CONTENTS, READONLY, DEBUGGING

Disassembly of section .text:

00000000 <__vectors>:
       0:	71 c0       	rjmp	.+226    	; 0xe4 <__ctors_end>
       2:	00 00       	nop
       4:	8f c0       	rjmp	.+286    	; 0x124 <__bad_interrupt>
       6:	00 00       	nop
       8:	8d c0       	rjmp	.+282    	; 0x124 <__bad_interrupt>
       a:	00 00       	nop
       c:	8b c0       	rjmp	.+278    	; 0x124 <__bad_interrupt>
       e:	00 00       	nop
      10:	89 c0       	rjmp	.+274    	; 0x124 <__bad_interrupt>
      12:	00 00       	nop
      14:	87 c0       	rjmp	.+270    	; 0x124 <__bad_interrupt>
      16:	00 00       	nop
      18:	85 c0       	rjmp	.+266    	; 0x124 <__bad_interrupt>
      1a:	00 00       	nop
      1c:	83 c0       	rjmp	.+262    	; 0x124 <__bad_interrupt>
      1e:	00 00       	nop
      20:	81 c0       	rjmp	.+258    	; 0x124 <__bad_interrupt>
      22:	00 00       	nop
      24:	7f c0       	rjmp	.+254    	; 0x124 <__bad_interrupt>
      26:	00 00       	nop
      28:	7d c0       	rjmp	.+250    	; 0x124 <__bad_interrupt>
      2a:	00 00       	nop
      2c:	7b c0       	rjmp	.+246    	; 0x124 <__bad_interrupt>
      2e:	00 00       	nop
      30:	79 c0       	rjmp	.+242    	; 0x124 <__bad_interrupt>
      32:	00 00       	nop
      34:	77 c0       	rjmp	.+238    	; 0x124 <__bad_interrupt>
      36:	00 00       	nop
      38:	75 c0       	rjmp	.+234    	; 0x124 <__bad_interrupt>
      3a:	00 00       	nop
      3c:	73 c0       	rjmp	.+230    	; 0x124 <__bad_interrupt>
      3e:	00 00       	nop
      40:	71 c0       	rjmp	.+226    	; 0x124 <__bad_interrupt>
      42:	00 00       	nop
      44:	53 c1       	rjmp	.+678    	; 0x2ec <__vector_17>
      46:	00 00       	nop
      48:	6d c0       	rjmp	.+218    	; 0x124 <__bad_interrupt>
      4a:	00 00       	nop
      4c:	6b c0       	rjmp	.+214    	; 0x124 <__bad_interrupt>
      4e:	00 00       	nop
      50:	69 c0       	rjmp	.+210    	; 0x124 <__bad_interrupt>
      52:	00 00       	nop
      54:	67 c0       	rjmp	.+206    	; 0x124 <__bad_interrupt>
      56:	00 00       	nop
      58:	65 c0       	rjmp	.+202    	; 0x124 <__bad_interrupt>
      5a:	00 00       	nop
      5c:	63 c0       	rjmp	.+198    	; 0x124 <__bad_interrupt>
      5e:	00 00       	nop
      60:	61 c0       	rjmp	.+194    	; 0x124 <__bad_interrupt>
      62:	00 00       	nop
      64:	99 c6       	rjmp	.+3378   	; 0xd98 <__vector_25>
      66:	00 00       	nop
      68:	5d c0       	rjmp	.+186    	; 0x124 <__bad_interrupt>
      6a:	00 00       	nop
      6c:	5b c0       	rjmp	.+182    	; 0x124 <__bad_interrupt>
      6e:	00 00       	nop
      70:	59 c0       	rjmp	.+178    	; 0x124 <__bad_interrupt>
      72:	00 00       	nop
      74:	57 c0       	rjmp	.+174    	; 0x124 <__bad_interrupt>
      76:	00 00       	nop
      78:	55 c0       	rjmp	.+170    	; 0x124 <__bad_interrupt>
      7a:	00 00       	nop
      7c:	53 c0       	rjmp	.+166    	; 0x124 <__bad_interrupt>
      7e:	00 00       	nop
      80:	51 c0       	rjmp	.+162    	; 0x124 <__bad_interrupt>
      82:	00 00       	nop
      84:	4f c0       	rjmp	.+158    	; 0x124 <__bad_interrupt>
      86:	00 00       	nop
      88:	4d c0       	rjmp	.+154    	; 0x124 <__bad_interrupt>
      8a:	00 00       	nop
      8c:	4b c0       	rjmp	.+150    	; 0x124 <__bad_interrupt>
      8e:	00 00       	nop
      90:	49 c0       	rjmp	.+146    	; 0x124 <__bad_interrupt>
      92:	00 00       	nop
      94:	47 c0       	rjmp	.+142    	; 0x124 <__bad_interrupt>
      96:	00 00       	nop
      98:	45 c0       	rjmp	.+138    	; 0x124 <__bad_interrupt>
      9a:	00 00       	nop
      9c:	43 c0       	rjmp	.+134    	; 0x124 <__bad_interrupt>
      9e:	00 00       	nop
      a0:	41 c0       	rjmp	.+130    	; 0x124 <__bad_interrupt>
      a2:	00 00       	nop
      a4:	3f c0       	rjmp	.+126    	; 0x124 <__bad_interrupt>
      a6:	00 00       	nop
      a8:	3d c0       	rjmp	.+122    	; 0x124 <__bad_interrupt>
      aa:	00 00       	nop
      ac:	3b c0       	rjmp	.+118    	; 0x124 <__bad_interrupt>
      ae:	00 00       	nop
      b0:	39 c0       	rjmp	.+114    	; 0x124 <__bad_interrupt>
      b2:	00 00       	nop
      b4:	37 c0       	rjmp	.+110    	; 0x124 <__bad_interrupt>
      b6:	00 00       	nop
      b8:	35 c0       	rjmp	.+106    	; 0x124 <__bad_interrupt>
      ba:	00 00       	nop
      bc:	33 c0       	rjmp	.+102    	; 0x124 <__bad_interrupt>
      be:	00 00       	nop
      c0:	31 c0       	rjmp	.+98     	; 0x124 <__bad_interrupt>
      c2:	00 00       	nop
      c4:	2f c0       	rjmp	.+94     	; 0x124 <__bad_interrupt>
      c6:	00 00       	nop
      c8:	2d c0       	rjmp	.+90     	; 0x124 <__bad_interrupt>
      ca:	00 00       	nop
      cc:	2b c0       	rjmp	.+86     	; 0x124 <__bad_interrupt>
      ce:	00 00       	nop
      d0:	29 c0       	rjmp	.+82     	; 0x124 <__bad_interrupt>
      d2:	00 00       	nop
      d4:	27 c0       	rjmp	.+78     	; 0x124 <__bad_interrupt>
      d6:	00 00       	nop
      d8:	25 c0       	rjmp	.+74     	; 0x124 <__bad_interrupt>
      da:	00 00       	nop
      dc:	23 c0       	rjmp	.+70     	; 0x124 <__bad_interrupt>
      de:	00 00       	nop
      e0:	21 c0       	rjmp	.+66     	; 0x124 <__bad_interrupt>
	...

000000e4 <__ctors_end>:
      e4:	11 24       	eor	r1, r1
      e6:	1f be       	out	0x3f, r1	; 63
      e8:	cf ef       	ldi	r28, 0xFF	; 255
      ea:	d1 e2       	ldi	r29, 0x21	; 33
      ec:	de bf       	out	0x3e, r29	; 62
      ee:	cd bf       	out	0x3d, r28	; 61
      f0:	00 e0       	ldi	r16, 0x00	; 0
      f2:	0c bf       	out	0x3c, r16	; 60

000000f4 <__do_copy_data>:
      f4:	12 e0       	ldi	r17, 0x02	; 2
      f6:	a0 e0       	ldi	r26, 0x00	; 0
      f8:	b2 e0       	ldi	r27, 0x02	; 2
      fa:	e6 ee       	ldi	r30, 0xE6	; 230
      fc:	f3 e1       	ldi	r31, 0x13	; 19
      fe:	00 e0       	ldi	r16, 0x00	; 0
     100:	0b bf       	out	0x3b, r16	; 59
     102:	02 c0       	rjmp	.+4      	; 0x108 <__do_copy_data+0x14>
     104:	07 90       	elpm	r0, Z+
     106:	0d 92       	st	X+, r0
     108:	ac 30       	cpi	r26, 0x0C	; 12
     10a:	b1 07       	cpc	r27, r17
     10c:	d9 f7       	brne	.-10     	; 0x104 <__do_copy_data+0x10>

0000010e <__do_clear_bss>:
     10e:	2f e0       	ldi	r18, 0x0F	; 15
     110:	ac e0       	ldi	r26, 0x0C	; 12
     112:	b2 e0       	ldi	r27, 0x02	; 2
     114:	01 c0       	rjmp	.+2      	; 0x118 <.do_clear_bss_start>

00000116 <.do_clear_bss_loop>:
     116:	1d 92       	st	X+, r1

00000118 <.do_clear_bss_start>:
     118:	a9 32       	cpi	r26, 0x29	; 41
     11a:	b2 07       	cpc	r27, r18
     11c:	e1 f7       	brne	.-8      	; 0x116 <.do_clear_bss_loop>
     11e:	3c d5       	rcall	.+2680   	; 0xb98 <main>
     120:	0c 94 f1 09 	jmp	0x13e2	; 0x13e2 <_exit>

00000124 <__bad_interrupt>:
     124:	6d cf       	rjmp	.-294    	; 0x0 <__vectors>

00000126 <_ZL4idlev>:
 * Runtime entry point into the program; just start the RTOS.  The application layer must define r_main() for its entry point.
 */
int main()
{
    //DDRB = (_BV(PB5));
	//PORTB &= ~_BV(PB5);
     126:	ff cf       	rjmp	.-2      	; 0x126 <_ZL4idlev>

00000128 <_ZL11exit_kernelv>:
     128:	ff 93       	push	r31
     12a:	fc b7       	in	r31, 0x3c	; 60
     12c:	ff 93       	push	r31
     12e:	ff b7       	in	r31, 0x3f	; 63
     130:	f8 94       	cli
     132:	ff 93       	push	r31
     134:	ef 93       	push	r30
     136:	df 93       	push	r29
     138:	cf 93       	push	r28
     13a:	bf 93       	push	r27
     13c:	af 93       	push	r26
     13e:	9f 93       	push	r25
     140:	8f 93       	push	r24
     142:	7f 93       	push	r23
     144:	6f 93       	push	r22
     146:	5f 93       	push	r21
     148:	4f 93       	push	r20
     14a:	3f 93       	push	r19
     14c:	2f 93       	push	r18
     14e:	1f 93       	push	r17
     150:	0f 93       	push	r16
     152:	ff 92       	push	r15
     154:	ef 92       	push	r14
     156:	df 92       	push	r13
     158:	cf 92       	push	r12
     15a:	bf 92       	push	r11
     15c:	af 92       	push	r10
     15e:	9f 92       	push	r9
     160:	8f 92       	push	r8
     162:	7f 92       	push	r7
     164:	6f 92       	push	r6
     166:	5f 92       	push	r5
     168:	4f 92       	push	r4
     16a:	3f 92       	push	r3
     16c:	2f 92       	push	r2
     16e:	1f 92       	push	r1
     170:	0f 92       	push	r0
     172:	8d b7       	in	r24, 0x3d	; 61
     174:	9e b7       	in	r25, 0x3e	; 62
     176:	90 93 99 0c 	sts	0x0C99, r25
     17a:	80 93 98 0c 	sts	0x0C98, r24
     17e:	e0 91 9a 0c 	lds	r30, 0x0C9A
     182:	f0 91 9b 0c 	lds	r31, 0x0C9B
     186:	f3 95       	inc	r31
     188:	80 81       	ld	r24, Z
     18a:	91 81       	ldd	r25, Z+1	; 0x01
     18c:	9e bf       	out	0x3e, r25	; 62
     18e:	8d bf       	out	0x3d, r24	; 61
     190:	0f 90       	pop	r0
     192:	1f 90       	pop	r1
     194:	2f 90       	pop	r2
     196:	3f 90       	pop	r3
     198:	4f 90       	pop	r4
     19a:	5f 90       	pop	r5
     19c:	6f 90       	pop	r6
     19e:	7f 90       	pop	r7
     1a0:	8f 90       	pop	r8
     1a2:	9f 90       	pop	r9
     1a4:	af 90       	pop	r10
     1a6:	bf 90       	pop	r11
     1a8:	cf 90       	pop	r12
     1aa:	df 90       	pop	r13
     1ac:	ef 90       	pop	r14
     1ae:	ff 90       	pop	r15
     1b0:	0f 91       	pop	r16
     1b2:	1f 91       	pop	r17
     1b4:	2f 91       	pop	r18
     1b6:	3f 91       	pop	r19
     1b8:	4f 91       	pop	r20
     1ba:	5f 91       	pop	r21
     1bc:	6f 91       	pop	r22
     1be:	7f 91       	pop	r23
     1c0:	8f 91       	pop	r24
     1c2:	9f 91       	pop	r25
     1c4:	af 91       	pop	r26
     1c6:	bf 91       	pop	r27
     1c8:	cf 91       	pop	r28
     1ca:	df 91       	pop	r29
     1cc:	ef 91       	pop	r30
     1ce:	ff 91       	pop	r31
     1d0:	ff bf       	out	0x3f, r31	; 63
     1d2:	ff 91       	pop	r31
     1d4:	fc bf       	out	0x3c, r31	; 60
     1d6:	ff 91       	pop	r31
     1d8:	08 95       	ret

000001da <_ZL12enter_kernelv>:
     1da:	ff 93       	push	r31
     1dc:	fc b7       	in	r31, 0x3c	; 60
     1de:	ff 93       	push	r31
     1e0:	ff b7       	in	r31, 0x3f	; 63
     1e2:	f8 94       	cli
     1e4:	ff 93       	push	r31
     1e6:	ef 93       	push	r30
     1e8:	df 93       	push	r29
     1ea:	cf 93       	push	r28
     1ec:	bf 93       	push	r27
     1ee:	af 93       	push	r26
     1f0:	9f 93       	push	r25
     1f2:	8f 93       	push	r24
     1f4:	7f 93       	push	r23
     1f6:	6f 93       	push	r22
     1f8:	5f 93       	push	r21
     1fa:	4f 93       	push	r20
     1fc:	3f 93       	push	r19
     1fe:	2f 93       	push	r18
     200:	1f 93       	push	r17
     202:	0f 93       	push	r16
     204:	ff 92       	push	r15
     206:	ef 92       	push	r14
     208:	df 92       	push	r13
     20a:	cf 92       	push	r12
     20c:	bf 92       	push	r11
     20e:	af 92       	push	r10
     210:	9f 92       	push	r9
     212:	8f 92       	push	r8
     214:	7f 92       	push	r7
     216:	6f 92       	push	r6
     218:	5f 92       	push	r5
     21a:	4f 92       	push	r4
     21c:	3f 92       	push	r3
     21e:	2f 92       	push	r2
     220:	1f 92       	push	r1
     222:	0f 92       	push	r0
     224:	e0 91 9a 0c 	lds	r30, 0x0C9A
     228:	f0 91 9b 0c 	lds	r31, 0x0C9B
     22c:	8d b7       	in	r24, 0x3d	; 61
     22e:	9e b7       	in	r25, 0x3e	; 62
     230:	f3 95       	inc	r31
     232:	91 83       	std	Z+1, r25	; 0x01
     234:	80 83       	st	Z, r24
     236:	80 91 98 0c 	lds	r24, 0x0C98
     23a:	90 91 99 0c 	lds	r25, 0x0C99
     23e:	9e bf       	out	0x3e, r25	; 62
     240:	8d bf       	out	0x3d, r24	; 61
     242:	0f 90       	pop	r0
     244:	1f 90       	pop	r1
     246:	2f 90       	pop	r2
     248:	3f 90       	pop	r3
     24a:	4f 90       	pop	r4
     24c:	5f 90       	pop	r5
     24e:	6f 90       	pop	r6
     250:	7f 90       	pop	r7
     252:	8f 90       	pop	r8
     254:	9f 90       	pop	r9
     256:	af 90       	pop	r10
     258:	bf 90       	pop	r11
     25a:	cf 90       	pop	r12
     25c:	df 90       	pop	r13
     25e:	ef 90       	pop	r14
     260:	ff 90       	pop	r15
     262:	0f 91       	pop	r16
     264:	1f 91       	pop	r17
     266:	2f 91       	pop	r18
     268:	3f 91       	pop	r19
     26a:	4f 91       	pop	r20
     26c:	5f 91       	pop	r21
     26e:	6f 91       	pop	r22
     270:	7f 91       	pop	r23
     272:	8f 91       	pop	r24
     274:	9f 91       	pop	r25
     276:	af 91       	pop	r26
     278:	bf 91       	pop	r27
     27a:	cf 91       	pop	r28
     27c:	df 91       	pop	r29
     27e:	ef 91       	pop	r30
     280:	ff 91       	pop	r31
     282:	ff bf       	out	0x3f, r31	; 63
     284:	ff 91       	pop	r31
     286:	fc bf       	out	0x3c, r31	; 60
     288:	ff 91       	pop	r31
     28a:	08 95       	ret

0000028c <_ZL7enqueueP7queue_tP9td_struct>:
     28c:	fc 01       	movw	r30, r24
     28e:	db 01       	movw	r26, r22
     290:	a0 5f       	subi	r26, 0xF0	; 240
     292:	be 4f       	sbci	r27, 0xFE	; 254
     294:	1d 92       	st	X+, r1
     296:	1c 92       	st	X, r1
     298:	80 81       	ld	r24, Z
     29a:	91 81       	ldd	r25, Z+1	; 0x01
     29c:	89 2b       	or	r24, r25
     29e:	19 f4       	brne	.+6      	; 0x2a6 <_ZL7enqueueP7queue_tP9td_struct+0x1a>
     2a0:	71 83       	std	Z+1, r23	; 0x01
     2a2:	60 83       	st	Z, r22
     2a4:	06 c0       	rjmp	.+12     	; 0x2b2 <_ZL7enqueueP7queue_tP9td_struct+0x26>
     2a6:	a2 81       	ldd	r26, Z+2	; 0x02
     2a8:	b3 81       	ldd	r27, Z+3	; 0x03
     2aa:	a0 5f       	subi	r26, 0xF0	; 240
     2ac:	be 4f       	sbci	r27, 0xFE	; 254
     2ae:	6d 93       	st	X+, r22
     2b0:	7c 93       	st	X, r23
     2b2:	73 83       	std	Z+3, r23	; 0x03
     2b4:	62 83       	std	Z+2, r22	; 0x02
     2b6:	08 95       	ret

000002b8 <Task_Terminate>:
     2b8:	cf 93       	push	r28
     2ba:	cf b7       	in	r28, 0x3f	; 63
     2bc:	f8 94       	cli
     2be:	83 e0       	ldi	r24, 0x03	; 3
     2c0:	80 93 e3 02 	sts	0x02E3, r24
     2c4:	8a df       	rcall	.-236    	; 0x1da <_ZL12enter_kernelv>
     2c6:	cf bf       	out	0x3f, r28	; 63
     2c8:	cf 91       	pop	r28
     2ca:	08 95       	ret

000002cc <_ZL7dequeueP7queue_t.isra.1>:
     2cc:	dc 01       	movw	r26, r24
     2ce:	8d 91       	ld	r24, X+
     2d0:	9c 91       	ld	r25, X
     2d2:	11 97       	sbiw	r26, 0x01	; 1
     2d4:	00 97       	sbiw	r24, 0x00	; 0
     2d6:	49 f0       	breq	.+18     	; 0x2ea <_ZL7dequeueP7queue_t.isra.1+0x1e>
     2d8:	fc 01       	movw	r30, r24
     2da:	e0 5f       	subi	r30, 0xF0	; 240
     2dc:	fe 4f       	sbci	r31, 0xFE	; 254
     2de:	20 81       	ld	r18, Z
     2e0:	31 81       	ldd	r19, Z+1	; 0x01
     2e2:	2d 93       	st	X+, r18
     2e4:	3c 93       	st	X, r19
     2e6:	11 82       	std	Z+1, r1	; 0x01
     2e8:	10 82       	st	Z, r1
     2ea:	08 95       	ret

000002ec <__vector_17>:
     2ec:	ff 93       	push	r31
     2ee:	fc b7       	in	r31, 0x3c	; 60
     2f0:	ff 93       	push	r31
     2f2:	ff b7       	in	r31, 0x3f	; 63
     2f4:	f8 94       	cli
     2f6:	f0 68       	ori	r31, 0x80	; 128
     2f8:	ff 93       	push	r31
     2fa:	ef 93       	push	r30
     2fc:	df 93       	push	r29
     2fe:	cf 93       	push	r28
     300:	bf 93       	push	r27
     302:	af 93       	push	r26
     304:	9f 93       	push	r25
     306:	8f 93       	push	r24
     308:	7f 93       	push	r23
     30a:	6f 93       	push	r22
     30c:	5f 93       	push	r21
     30e:	4f 93       	push	r20
     310:	3f 93       	push	r19
     312:	2f 93       	push	r18
     314:	1f 93       	push	r17
     316:	0f 93       	push	r16
     318:	ff 92       	push	r15
     31a:	ef 92       	push	r14
     31c:	df 92       	push	r13
     31e:	cf 92       	push	r12
     320:	bf 92       	push	r11
     322:	af 92       	push	r10
     324:	9f 92       	push	r9
     326:	8f 92       	push	r8
     328:	7f 92       	push	r7
     32a:	6f 92       	push	r6
     32c:	5f 92       	push	r5
     32e:	4f 92       	push	r4
     330:	3f 92       	push	r3
     332:	2f 92       	push	r2
     334:	1f 92       	push	r1
     336:	0f 92       	push	r0
     338:	e0 91 9a 0c 	lds	r30, 0x0C9A
     33c:	f0 91 9b 0c 	lds	r31, 0x0C9B
     340:	8d b7       	in	r24, 0x3d	; 61
     342:	9e b7       	in	r25, 0x3e	; 62
     344:	f3 95       	inc	r31
     346:	91 83       	std	Z+1, r25	; 0x01
     348:	80 83       	st	Z, r24
     34a:	80 91 98 0c 	lds	r24, 0x0C98
     34e:	90 91 99 0c 	lds	r25, 0x0C99
     352:	9e bf       	out	0x3e, r25	; 62
     354:	8d bf       	out	0x3d, r24	; 61
     356:	81 e0       	ldi	r24, 0x01	; 1
     358:	80 93 e3 02 	sts	0x02E3, r24
     35c:	e8 e8       	ldi	r30, 0x88	; 136
     35e:	f0 e0       	ldi	r31, 0x00	; 0
     360:	80 81       	ld	r24, Z
     362:	91 81       	ldd	r25, Z+1	; 0x01
     364:	80 5f       	subi	r24, 0xF0	; 240
     366:	98 4d       	sbci	r25, 0xD8	; 216
     368:	91 83       	std	Z+1, r25	; 0x01
     36a:	80 83       	st	Z, r24
     36c:	80 91 98 0c 	lds	r24, 0x0C98
     370:	90 91 99 0c 	lds	r25, 0x0C99
     374:	9e bf       	out	0x3e, r25	; 62
     376:	8d bf       	out	0x3d, r24	; 61
     378:	0f 90       	pop	r0
     37a:	1f 90       	pop	r1
     37c:	2f 90       	pop	r2
     37e:	3f 90       	pop	r3
     380:	4f 90       	pop	r4
     382:	5f 90       	pop	r5
     384:	6f 90       	pop	r6
     386:	7f 90       	pop	r7
     388:	8f 90       	pop	r8
     38a:	9f 90       	pop	r9
     38c:	af 90       	pop	r10
     38e:	bf 90       	pop	r11
     390:	cf 90       	pop	r12
     392:	df 90       	pop	r13
     394:	ef 90       	pop	r14
     396:	ff 90       	pop	r15
     398:	0f 91       	pop	r16
     39a:	1f 91       	pop	r17
     39c:	2f 91       	pop	r18
     39e:	3f 91       	pop	r19
     3a0:	4f 91       	pop	r20
     3a2:	5f 91       	pop	r21
     3a4:	6f 91       	pop	r22
     3a6:	7f 91       	pop	r23
     3a8:	8f 91       	pop	r24
     3aa:	9f 91       	pop	r25
     3ac:	af 91       	pop	r26
     3ae:	bf 91       	pop	r27
     3b0:	cf 91       	pop	r28
     3b2:	df 91       	pop	r29
     3b4:	ef 91       	pop	r30
     3b6:	ff 91       	pop	r31
     3b8:	ff bf       	out	0x3f, r31	; 63
     3ba:	ff 91       	pop	r31
     3bc:	fc bf       	out	0x3c, r31	; 60
     3be:	ff 91       	pop	r31
     3c0:	08 95       	ret

000003c2 <OS_Abort>:
     3c2:	f8 94       	cli
     3c4:	80 e6       	ldi	r24, 0x60	; 96
     3c6:	80 93 01 01 	sts	0x0101, r24
     3ca:	80 91 00 02 	lds	r24, 0x0200
     3ce:	86 30       	cpi	r24, 0x06	; 6
     3d0:	28 f4       	brcc	.+10     	; 0x3dc <OS_Abort+0x1a>
     3d2:	80 91 00 02 	lds	r24, 0x0200
     3d6:	8f 5f       	subi	r24, 0xFF	; 255
     3d8:	30 e4       	ldi	r19, 0x40	; 64
     3da:	04 c0       	rjmp	.+8      	; 0x3e4 <OS_Abort+0x22>
     3dc:	80 91 00 02 	lds	r24, 0x0200
     3e0:	85 50       	subi	r24, 0x05	; 5
     3e2:	30 e2       	ldi	r19, 0x20	; 32
     3e4:	40 e6       	ldi	r20, 0x60	; 96
     3e6:	40 93 02 01 	sts	0x0102, r20
     3ea:	94 e6       	ldi	r25, 0x64	; 100
     3ec:	2f e7       	ldi	r18, 0x7F	; 127
     3ee:	58 e3       	ldi	r21, 0x38	; 56
     3f0:	61 e0       	ldi	r22, 0x01	; 1
     3f2:	21 50       	subi	r18, 0x01	; 1
     3f4:	50 40       	sbci	r21, 0x00	; 0
     3f6:	60 40       	sbci	r22, 0x00	; 0
     3f8:	e1 f7       	brne	.-8      	; 0x3f2 <OS_Abort+0x30>
     3fa:	00 c0       	rjmp	.+0      	; 0x3fc <OS_Abort+0x3a>
     3fc:	00 00       	nop
     3fe:	91 50       	subi	r25, 0x01	; 1
     400:	a9 f7       	brne	.-22     	; 0x3ec <OS_Abort+0x2a>
     402:	10 92 02 01 	sts	0x0102, r1
     406:	98 e2       	ldi	r25, 0x28	; 40
     408:	7f e7       	ldi	r23, 0x7F	; 127
     40a:	28 e3       	ldi	r18, 0x38	; 56
     40c:	51 e0       	ldi	r21, 0x01	; 1
     40e:	71 50       	subi	r23, 0x01	; 1
     410:	20 40       	sbci	r18, 0x00	; 0
     412:	50 40       	sbci	r21, 0x00	; 0
     414:	e1 f7       	brne	.-8      	; 0x40e <OS_Abort+0x4c>
     416:	00 c0       	rjmp	.+0      	; 0x418 <OS_Abort+0x56>
     418:	00 00       	nop
     41a:	91 50       	subi	r25, 0x01	; 1
     41c:	a9 f7       	brne	.-22     	; 0x408 <OS_Abort+0x46>
     41e:	98 17       	cp	r25, r24
     420:	f1 f0       	breq	.+60     	; 0x45e <OS_Abort+0x9c>
     422:	30 93 02 01 	sts	0x0102, r19
     426:	2a e0       	ldi	r18, 0x0A	; 10
     428:	6f e7       	ldi	r22, 0x7F	; 127
     42a:	78 e3       	ldi	r23, 0x38	; 56
     42c:	51 e0       	ldi	r21, 0x01	; 1
     42e:	61 50       	subi	r22, 0x01	; 1
     430:	70 40       	sbci	r23, 0x00	; 0
     432:	50 40       	sbci	r21, 0x00	; 0
     434:	e1 f7       	brne	.-8      	; 0x42e <OS_Abort+0x6c>
     436:	00 c0       	rjmp	.+0      	; 0x438 <OS_Abort+0x76>
     438:	00 00       	nop
     43a:	21 50       	subi	r18, 0x01	; 1
     43c:	a9 f7       	brne	.-22     	; 0x428 <OS_Abort+0x66>
     43e:	10 92 02 01 	sts	0x0102, r1
     442:	2a e0       	ldi	r18, 0x0A	; 10
     444:	6f e7       	ldi	r22, 0x7F	; 127
     446:	78 e3       	ldi	r23, 0x38	; 56
     448:	51 e0       	ldi	r21, 0x01	; 1
     44a:	61 50       	subi	r22, 0x01	; 1
     44c:	70 40       	sbci	r23, 0x00	; 0
     44e:	50 40       	sbci	r21, 0x00	; 0
     450:	e1 f7       	brne	.-8      	; 0x44a <OS_Abort+0x88>
     452:	00 c0       	rjmp	.+0      	; 0x454 <OS_Abort+0x92>
     454:	00 00       	nop
     456:	21 50       	subi	r18, 0x01	; 1
     458:	a9 f7       	brne	.-22     	; 0x444 <OS_Abort+0x82>
     45a:	9f 5f       	subi	r25, 0xFF	; 255
     45c:	e0 cf       	rjmp	.-64     	; 0x41e <OS_Abort+0x5c>
     45e:	94 e1       	ldi	r25, 0x14	; 20
     460:	6f e7       	ldi	r22, 0x7F	; 127
     462:	78 e3       	ldi	r23, 0x38	; 56
     464:	21 e0       	ldi	r18, 0x01	; 1
     466:	61 50       	subi	r22, 0x01	; 1
     468:	70 40       	sbci	r23, 0x00	; 0
     46a:	20 40       	sbci	r18, 0x00	; 0
     46c:	e1 f7       	brne	.-8      	; 0x466 <OS_Abort+0xa4>
     46e:	00 c0       	rjmp	.+0      	; 0x470 <OS_Abort+0xae>
     470:	00 00       	nop
     472:	91 50       	subi	r25, 0x01	; 1
     474:	a9 f7       	brne	.-22     	; 0x460 <OS_Abort+0x9e>
     476:	b7 cf       	rjmp	.-146    	; 0x3e6 <OS_Abort+0x24>

00000478 <_ZL18kernel_create_taskv>:
     478:	80 91 ce 02 	lds	r24, 0x02CE
     47c:	90 91 cf 02 	lds	r25, 0x02CF
     480:	89 2b       	or	r24, r25
     482:	09 f4       	brne	.+2      	; 0x486 <_ZL18kernel_create_taskv+0xe>
     484:	b5 c0       	rjmp	.+362    	; 0x5f0 <_ZL18kernel_create_taskv+0x178>
     486:	80 91 d8 02 	lds	r24, 0x02D8
     48a:	82 30       	cpi	r24, 0x02	; 2
     48c:	f9 f4       	brne	.+62     	; 0x4cc <_ZL18kernel_create_taskv+0x54>
     48e:	80 91 df 02 	lds	r24, 0x02DF
     492:	90 91 e0 02 	lds	r25, 0x02E0
     496:	89 2b       	or	r24, r25
     498:	09 f4       	brne	.+2      	; 0x49c <_ZL18kernel_create_taskv+0x24>
     49a:	b0 c0       	rjmp	.+352    	; 0x5fc <_ZL18kernel_create_taskv+0x184>
     49c:	80 91 dd 02 	lds	r24, 0x02DD
     4a0:	90 91 de 02 	lds	r25, 0x02DE
     4a4:	89 2b       	or	r24, r25
     4a6:	09 f4       	brne	.+2      	; 0x4aa <_ZL18kernel_create_taskv+0x32>
     4a8:	a9 c0       	rjmp	.+338    	; 0x5fc <_ZL18kernel_create_taskv+0x184>
     4aa:	80 91 e1 02 	lds	r24, 0x02E1
     4ae:	90 91 e2 02 	lds	r25, 0x02E2
     4b2:	20 91 df 02 	lds	r18, 0x02DF
     4b6:	30 91 e0 02 	lds	r19, 0x02E0
     4ba:	80 91 dd 02 	lds	r24, 0x02DD
     4be:	90 91 de 02 	lds	r25, 0x02DE
     4c2:	82 17       	cp	r24, r18
     4c4:	93 07       	cpc	r25, r19
     4c6:	10 f4       	brcc	.+4      	; 0x4cc <_ZL18kernel_create_taskv+0x54>
     4c8:	83 e0       	ldi	r24, 0x03	; 3
     4ca:	99 c0       	rjmp	.+306    	; 0x5fe <_ZL18kernel_create_taskv+0x186>
     4cc:	80 91 d8 02 	lds	r24, 0x02D8
     4d0:	88 23       	and	r24, r24
     4d2:	29 f0       	breq	.+10     	; 0x4de <_ZL18kernel_create_taskv+0x66>
     4d4:	8e ec       	ldi	r24, 0xCE	; 206
     4d6:	92 e0       	ldi	r25, 0x02	; 2
     4d8:	f9 de       	rcall	.-526    	; 0x2cc <_ZL7dequeueP7queue_t.isra.1>
     4da:	bc 01       	movw	r22, r24
     4dc:	02 c0       	rjmp	.+4      	; 0x4e2 <_ZL18kernel_create_taskv+0x6a>
     4de:	64 e8       	ldi	r22, 0x84	; 132
     4e0:	7b e0       	ldi	r23, 0x0B	; 11
     4e2:	fb 01       	movw	r30, r22
     4e4:	e7 52       	subi	r30, 0x27	; 39
     4e6:	ff 4f       	sbci	r31, 0xFF	; 255
     4e8:	10 82       	st	Z, r1
     4ea:	80 e8       	ldi	r24, 0x80	; 128
     4ec:	7e 96       	adiw	r30, 0x1e	; 30
     4ee:	80 83       	st	Z, r24
     4f0:	33 96       	adiw	r30, 0x03	; 3
     4f2:	10 82       	st	Z, r1
     4f4:	80 91 d4 02 	lds	r24, 0x02D4
     4f8:	90 91 d5 02 	lds	r25, 0x02D5
     4fc:	31 96       	adiw	r30, 0x01	; 1
     4fe:	90 83       	st	Z, r25
     500:	80 91 d4 02 	lds	r24, 0x02D4
     504:	90 91 d5 02 	lds	r25, 0x02D5
     508:	31 96       	adiw	r30, 0x01	; 1
     50a:	80 83       	st	Z, r24
     50c:	31 96       	adiw	r30, 0x01	; 1
     50e:	10 82       	st	Z, r1
     510:	8c e5       	ldi	r24, 0x5C	; 92
     512:	91 e0       	ldi	r25, 0x01	; 1
     514:	31 96       	adiw	r30, 0x01	; 1
     516:	90 83       	st	Z, r25
     518:	31 96       	adiw	r30, 0x01	; 1
     51a:	80 83       	st	Z, r24
     51c:	31 96       	adiw	r30, 0x01	; 1
     51e:	cb 01       	movw	r24, r22
     520:	89 52       	subi	r24, 0x29	; 41
     522:	9f 4f       	sbci	r25, 0xFF	; 255
     524:	91 83       	std	Z+1, r25	; 0x01
     526:	80 83       	st	Z, r24
     528:	82 e0       	ldi	r24, 0x02	; 2
     52a:	3c 96       	adiw	r30, 0x0c	; 12
     52c:	80 83       	st	Z, r24
     52e:	80 91 d6 02 	lds	r24, 0x02D6
     532:	90 91 d7 02 	lds	r25, 0x02D7
     536:	31 96       	adiw	r30, 0x01	; 1
     538:	91 83       	std	Z+1, r25	; 0x01
     53a:	80 83       	st	Z, r24
     53c:	80 91 d8 02 	lds	r24, 0x02D8
     540:	32 96       	adiw	r30, 0x02	; 2
     542:	80 83       	st	Z, r24
     544:	80 91 dd 02 	lds	r24, 0x02DD
     548:	90 91 de 02 	lds	r25, 0x02DE
     54c:	39 97       	sbiw	r30, 0x09	; 9
     54e:	91 83       	std	Z+1, r25	; 0x01
     550:	80 83       	st	Z, r24
     552:	80 91 df 02 	lds	r24, 0x02DF
     556:	90 91 e0 02 	lds	r25, 0x02E0
     55a:	32 96       	adiw	r30, 0x02	; 2
     55c:	91 83       	std	Z+1, r25	; 0x01
     55e:	80 83       	st	Z, r24
     560:	80 91 e1 02 	lds	r24, 0x02E1
     564:	90 91 e2 02 	lds	r25, 0x02E2
     568:	32 96       	adiw	r30, 0x02	; 2
     56a:	91 83       	std	Z+1, r25	; 0x01
     56c:	80 83       	st	Z, r24
     56e:	80 91 d9 02 	lds	r24, 0x02D9
     572:	90 91 da 02 	lds	r25, 0x02DA
     576:	38 97       	sbiw	r30, 0x08	; 8
     578:	91 83       	std	Z+1, r25	; 0x01
     57a:	80 83       	st	Z, r24
     57c:	80 91 db 02 	lds	r24, 0x02DB
     580:	90 91 dc 02 	lds	r25, 0x02DC
     584:	32 96       	adiw	r30, 0x02	; 2
     586:	91 83       	std	Z+1, r25	; 0x01
     588:	80 83       	st	Z, r24
     58a:	80 91 d8 02 	lds	r24, 0x02D8
     58e:	82 30       	cpi	r24, 0x02	; 2
     590:	51 f0       	breq	.+20     	; 0x5a6 <_ZL18kernel_create_taskv+0x12e>
     592:	83 30       	cpi	r24, 0x03	; 3
     594:	29 f0       	breq	.+10     	; 0x5a0 <_ZL18kernel_create_taskv+0x128>
     596:	81 30       	cpi	r24, 0x01	; 1
     598:	71 f5       	brne	.+92     	; 0x5f6 <_ZL18kernel_create_taskv+0x17e>
     59a:	8a ec       	ldi	r24, 0xCA	; 202
     59c:	92 e0       	ldi	r25, 0x02	; 2
     59e:	26 c0       	rjmp	.+76     	; 0x5ec <_ZL18kernel_create_taskv+0x174>
     5a0:	82 ec       	ldi	r24, 0xC2	; 194
     5a2:	92 e0       	ldi	r25, 0x02	; 2
     5a4:	23 c0       	rjmp	.+70     	; 0x5ec <_ZL18kernel_create_taskv+0x174>
     5a6:	fb 01       	movw	r30, r22
     5a8:	e0 5f       	subi	r30, 0xF0	; 240
     5aa:	fe 4f       	sbci	r31, 0xFE	; 254
     5ac:	11 82       	std	Z+1, r1	; 0x01
     5ae:	10 82       	st	Z, r1
     5b0:	80 91 c6 02 	lds	r24, 0x02C6
     5b4:	90 91 c7 02 	lds	r25, 0x02C7
     5b8:	32 96       	adiw	r30, 0x02	; 2
     5ba:	89 2b       	or	r24, r25
     5bc:	39 f4       	brne	.+14     	; 0x5cc <_ZL18kernel_create_taskv+0x154>
     5be:	11 82       	std	Z+1, r1	; 0x01
     5c0:	10 82       	st	Z, r1
     5c2:	70 93 c7 02 	sts	0x02C7, r23
     5c6:	60 93 c6 02 	sts	0x02C6, r22
     5ca:	0b c0       	rjmp	.+22     	; 0x5e2 <_ZL18kernel_create_taskv+0x16a>
     5cc:	80 91 c8 02 	lds	r24, 0x02C8
     5d0:	90 91 c9 02 	lds	r25, 0x02C9
     5d4:	dc 01       	movw	r26, r24
     5d6:	a0 5f       	subi	r26, 0xF0	; 240
     5d8:	be 4f       	sbci	r27, 0xFE	; 254
     5da:	6d 93       	st	X+, r22
     5dc:	7c 93       	st	X, r23
     5de:	91 83       	std	Z+1, r25	; 0x01
     5e0:	80 83       	st	Z, r24
     5e2:	70 93 c9 02 	sts	0x02C9, r23
     5e6:	60 93 c8 02 	sts	0x02C8, r22
     5ea:	05 c0       	rjmp	.+10     	; 0x5f6 <_ZL18kernel_create_taskv+0x17e>
     5ec:	4f de       	rcall	.-866    	; 0x28c <_ZL7enqueueP7queue_tP9td_struct>
     5ee:	03 c0       	rjmp	.+6      	; 0x5f6 <_ZL18kernel_create_taskv+0x17e>
     5f0:	80 e0       	ldi	r24, 0x00	; 0
     5f2:	90 e0       	ldi	r25, 0x00	; 0
     5f4:	08 95       	ret
     5f6:	81 e0       	ldi	r24, 0x01	; 1
     5f8:	90 e0       	ldi	r25, 0x00	; 0
     5fa:	08 95       	ret
     5fc:	84 e0       	ldi	r24, 0x04	; 4
     5fe:	80 93 00 02 	sts	0x0200, r24
     602:	df de       	rcall	.-578    	; 0x3c2 <OS_Abort>

00000604 <_Z7OS_Initv>:
     604:	cf 93       	push	r28
     606:	df 93       	push	r29
     608:	1f 92       	push	r1
     60a:	cd b7       	in	r28, 0x3d	; 61
     60c:	de b7       	in	r29, 0x3e	; 62
     60e:	80 91 81 00 	lds	r24, 0x0081
     612:	82 60       	ori	r24, 0x02	; 2
     614:	80 93 81 00 	sts	0x0081, r24
     618:	e0 ef       	ldi	r30, 0xF0	; 240
     61a:	f3 e0       	ldi	r31, 0x03	; 3
     61c:	ac e0       	ldi	r26, 0x0C	; 12
     61e:	b2 e0       	ldi	r27, 0x02	; 2
     620:	10 82       	st	Z, r1
     622:	1d 92       	st	X+, r1
     624:	1d 92       	st	X+, r1
     626:	cf 01       	movw	r24, r30
     628:	08 96       	adiw	r24, 0x08	; 8
     62a:	95 83       	std	Z+5, r25	; 0x05
     62c:	84 83       	std	Z+4, r24	; 0x04
     62e:	ec 5e       	subi	r30, 0xEC	; 236
     630:	fe 4f       	sbci	r31, 0xFE	; 254
     632:	2b e0       	ldi	r18, 0x0B	; 11
     634:	ec 37       	cpi	r30, 0x7C	; 124
     636:	f2 07       	cpc	r31, r18
     638:	99 f7       	brne	.-26     	; 0x620 <_Z7OS_Initv+0x1c>
     63a:	10 92 81 0b 	sts	0x0B81, r1
     63e:	10 92 80 0b 	sts	0x0B80, r1
     642:	04 ee       	ldi	r16, 0xE4	; 228
     644:	12 e0       	ldi	r17, 0x02	; 2
     646:	10 93 cf 02 	sts	0x02CF, r17
     64a:	00 93 ce 02 	sts	0x02CE, r16
     64e:	80 e7       	ldi	r24, 0x70	; 112
     650:	9a e0       	ldi	r25, 0x0A	; 10
     652:	90 93 d1 02 	sts	0x02D1, r25
     656:	80 93 d0 02 	sts	0x02D0, r24
     65a:	83 e9       	ldi	r24, 0x93	; 147
     65c:	90 e0       	ldi	r25, 0x00	; 0
     65e:	90 93 d5 02 	sts	0x02D5, r25
     662:	80 93 d4 02 	sts	0x02D4, r24
     666:	10 92 d8 02 	sts	0x02D8, r1
     66a:	06 df       	rcall	.-500    	; 0x478 <_ZL18kernel_create_taskv>
     66c:	86 ef       	ldi	r24, 0xF6	; 246
     66e:	95 e0       	ldi	r25, 0x05	; 5
     670:	90 93 d5 02 	sts	0x02D5, r25
     674:	80 93 d4 02 	sts	0x02D4, r24
     678:	83 e0       	ldi	r24, 0x03	; 3
     67a:	80 93 d8 02 	sts	0x02D8, r24
     67e:	fc de       	rcall	.-520    	; 0x478 <_ZL18kernel_create_taskv>
     680:	10 93 9b 0c 	sts	0x0C9B, r17
     684:	00 93 9a 0c 	sts	0x0C9A, r16
     688:	81 e0       	ldi	r24, 0x01	; 1
     68a:	80 93 f0 03 	sts	0x03F0, r24
     68e:	82 ec       	ldi	r24, 0xC2	; 194
     690:	92 e0       	ldi	r25, 0x02	; 2
     692:	1c de       	rcall	.-968    	; 0x2cc <_ZL7dequeueP7queue_t.isra.1>
     694:	80 91 6f 00 	lds	r24, 0x006F
     698:	82 60       	ori	r24, 0x02	; 2
     69a:	80 93 6f 00 	sts	0x006F, r24
     69e:	80 e1       	ldi	r24, 0x10	; 16
     6a0:	97 e2       	ldi	r25, 0x27	; 39
     6a2:	90 93 89 00 	sts	0x0089, r25
     6a6:	80 93 88 00 	sts	0x0088, r24
     6aa:	10 92 85 00 	sts	0x0085, r1
     6ae:	10 92 84 00 	sts	0x0084, r1
     6b2:	82 e0       	ldi	r24, 0x02	; 2
     6b4:	86 bb       	out	0x16, r24	; 22
     6b6:	ee 24       	eor	r14, r14
     6b8:	e3 94       	inc	r14
     6ba:	04 e8       	ldi	r16, 0x84	; 132
     6bc:	1b e0       	ldi	r17, 0x0B	; 11
     6be:	82 e0       	ldi	r24, 0x02	; 2
     6c0:	f8 2e       	mov	r15, r24
     6c2:	80 91 9a 0c 	lds	r24, 0x0C9A
     6c6:	90 91 9b 0c 	lds	r25, 0x0C9B
     6ca:	fc 01       	movw	r30, r24
     6cc:	e4 5f       	subi	r30, 0xF4	; 244
     6ce:	fe 4f       	sbci	r31, 0xFE	; 254
     6d0:	20 81       	ld	r18, Z
     6d2:	21 30       	cpi	r18, 0x01	; 1
     6d4:	21 f4       	brne	.+8      	; 0x6de <_Z7OS_Initv+0xda>
     6d6:	84 58       	subi	r24, 0x84	; 132
     6d8:	9b 40       	sbci	r25, 0x0B	; 11
     6da:	09 f0       	breq	.+2      	; 0x6de <_Z7OS_Initv+0xda>
     6dc:	57 c0       	rjmp	.+174    	; 0x78c <_Z7OS_Initv+0x188>
     6de:	80 91 c2 02 	lds	r24, 0x02C2
     6e2:	90 91 c3 02 	lds	r25, 0x02C3
     6e6:	89 2b       	or	r24, r25
     6e8:	19 f0       	breq	.+6      	; 0x6f0 <_Z7OS_Initv+0xec>
     6ea:	82 ec       	ldi	r24, 0xC2	; 194
     6ec:	92 e0       	ldi	r25, 0x02	; 2
     6ee:	3d c0       	rjmp	.+122    	; 0x76a <_Z7OS_Initv+0x166>
     6f0:	80 91 c6 02 	lds	r24, 0x02C6
     6f4:	90 91 c7 02 	lds	r25, 0x02C7
     6f8:	00 97       	sbiw	r24, 0x00	; 0
     6fa:	79 f1       	breq	.+94     	; 0x75a <_Z7OS_Initv+0x156>
     6fc:	20 e0       	ldi	r18, 0x00	; 0
     6fe:	30 e0       	ldi	r19, 0x00	; 0
     700:	40 e0       	ldi	r20, 0x00	; 0
     702:	50 e0       	ldi	r21, 0x00	; 0
     704:	fc 01       	movw	r30, r24
     706:	ee 5f       	subi	r30, 0xFE	; 254
     708:	fe 4f       	sbci	r31, 0xFE	; 254
     70a:	60 81       	ld	r22, Z
     70c:	71 81       	ldd	r23, Z+1	; 0x01
     70e:	67 2b       	or	r22, r23
     710:	81 f4       	brne	.+32     	; 0x732 <_Z7OS_Initv+0x12e>
     712:	dc 01       	movw	r26, r24
     714:	aa 5f       	subi	r26, 0xFA	; 250
     716:	be 4f       	sbci	r27, 0xFE	; 254
     718:	2d 91       	ld	r18, X+
     71a:	3c 91       	ld	r19, X
     71c:	31 83       	std	Z+1, r19	; 0x01
     71e:	20 83       	st	Z, r18
     720:	36 96       	adiw	r30, 0x06	; 6
     722:	20 81       	ld	r18, Z
     724:	31 81       	ldd	r19, Z+1	; 0x01
     726:	34 97       	sbiw	r30, 0x04	; 4
     728:	31 83       	std	Z+1, r19	; 0x01
     72a:	20 83       	st	Z, r18
     72c:	4f 5f       	subi	r20, 0xFF	; 255
     72e:	5f 4f       	sbci	r21, 0xFF	; 255
     730:	9c 01       	movw	r18, r24
     732:	42 30       	cpi	r20, 0x02	; 2
     734:	51 05       	cpc	r21, r1
     736:	14 f0       	brlt	.+4      	; 0x73c <_Z7OS_Initv+0x138>
     738:	8b e0       	ldi	r24, 0x0B	; 11
     73a:	66 c0       	rjmp	.+204    	; 0x808 <_Z7OS_Initv+0x204>
     73c:	fc 01       	movw	r30, r24
     73e:	e0 5f       	subi	r30, 0xF0	; 240
     740:	fe 4f       	sbci	r31, 0xFE	; 254
     742:	80 81       	ld	r24, Z
     744:	91 81       	ldd	r25, Z+1	; 0x01
     746:	00 97       	sbiw	r24, 0x00	; 0
     748:	e9 f6       	brne	.-70     	; 0x704 <_Z7OS_Initv+0x100>
     74a:	21 15       	cp	r18, r1
     74c:	31 05       	cpc	r19, r1
     74e:	29 f0       	breq	.+10     	; 0x75a <_Z7OS_Initv+0x156>
     750:	30 93 9b 0c 	sts	0x0C9B, r19
     754:	20 93 9a 0c 	sts	0x0C9A, r18
     758:	12 c0       	rjmp	.+36     	; 0x77e <_Z7OS_Initv+0x17a>
     75a:	80 91 ca 02 	lds	r24, 0x02CA
     75e:	90 91 cb 02 	lds	r25, 0x02CB
     762:	89 2b       	or	r24, r25
     764:	41 f0       	breq	.+16     	; 0x776 <_Z7OS_Initv+0x172>
     766:	8a ec       	ldi	r24, 0xCA	; 202
     768:	92 e0       	ldi	r25, 0x02	; 2
     76a:	b0 dd       	rcall	.-1184   	; 0x2cc <_ZL7dequeueP7queue_t.isra.1>
     76c:	90 93 9b 0c 	sts	0x0C9B, r25
     770:	80 93 9a 0c 	sts	0x0C9A, r24
     774:	04 c0       	rjmp	.+8      	; 0x77e <_Z7OS_Initv+0x17a>
     776:	10 93 9b 0c 	sts	0x0C9B, r17
     77a:	00 93 9a 0c 	sts	0x0C9A, r16
     77e:	e0 91 9a 0c 	lds	r30, 0x0C9A
     782:	f0 91 9b 0c 	lds	r31, 0x0C9B
     786:	e4 5f       	subi	r30, 0xF4	; 244
     788:	fe 4f       	sbci	r31, 0xFE	; 254
     78a:	e0 82       	st	Z, r14
     78c:	cd dc       	rcall	.-1638   	; 0x128 <_ZL11exit_kernelv>
     78e:	20 91 e3 02 	lds	r18, 0x02E3
     792:	22 30       	cpi	r18, 0x02	; 2
     794:	09 f4       	brne	.+2      	; 0x798 <_Z7OS_Initv+0x194>
     796:	5b c0       	rjmp	.+182    	; 0x84e <_Z7OS_Initv+0x24a>
     798:	c0 90 9a 0c 	lds	r12, 0x0C9A
     79c:	d0 90 9b 0c 	lds	r13, 0x0C9B
     7a0:	23 30       	cpi	r18, 0x03	; 3
     7a2:	30 f4       	brcc	.+12     	; 0x7b0 <_Z7OS_Initv+0x1ac>
     7a4:	22 23       	and	r18, r18
     7a6:	09 f4       	brne	.+2      	; 0x7aa <_Z7OS_Initv+0x1a6>
     7a8:	ec c0       	rjmp	.+472    	; 0x982 <_Z7OS_Initv+0x37e>
     7aa:	21 30       	cpi	r18, 0x01	; 1
     7ac:	51 f0       	breq	.+20     	; 0x7c2 <_Z7OS_Initv+0x1be>
     7ae:	e1 c0       	rjmp	.+450    	; 0x972 <_Z7OS_Initv+0x36e>
     7b0:	24 30       	cpi	r18, 0x04	; 4
     7b2:	09 f4       	brne	.+2      	; 0x7b6 <_Z7OS_Initv+0x1b2>
     7b4:	c9 c0       	rjmp	.+402    	; 0x948 <_Z7OS_Initv+0x344>
     7b6:	08 f4       	brcc	.+2      	; 0x7ba <_Z7OS_Initv+0x1b6>
     7b8:	6a c0       	rjmp	.+212    	; 0x88e <_Z7OS_Initv+0x28a>
     7ba:	25 30       	cpi	r18, 0x05	; 5
     7bc:	09 f4       	brne	.+2      	; 0x7c0 <_Z7OS_Initv+0x1bc>
     7be:	e1 c0       	rjmp	.+450    	; 0x982 <_Z7OS_Initv+0x37e>
     7c0:	d8 c0       	rjmp	.+432    	; 0x972 <_Z7OS_Initv+0x36e>
     7c2:	80 91 84 00 	lds	r24, 0x0084
     7c6:	90 91 85 00 	lds	r25, 0x0085
     7ca:	90 93 1f 02 	sts	0x021F, r25
     7ce:	80 93 1e 02 	sts	0x021E, r24
     7d2:	80 91 20 02 	lds	r24, 0x0220
     7d6:	8f 5f       	subi	r24, 0xFF	; 255
     7d8:	80 93 20 02 	sts	0x0220, r24
     7dc:	f6 01       	movw	r30, r12
     7de:	e1 5f       	subi	r30, 0xF1	; 241
     7e0:	fe 4f       	sbci	r31, 0xFE	; 254
     7e2:	40 81       	ld	r20, Z
     7e4:	42 30       	cpi	r20, 0x02	; 2
     7e6:	99 f4       	brne	.+38     	; 0x80e <_Z7OS_Initv+0x20a>
     7e8:	33 97       	sbiw	r30, 0x03	; 3
     7ea:	80 81       	ld	r24, Z
     7ec:	81 30       	cpi	r24, 0x01	; 1
     7ee:	79 f4       	brne	.+30     	; 0x80e <_Z7OS_Initv+0x20a>
     7f0:	38 97       	sbiw	r30, 0x08	; 8
     7f2:	80 81       	ld	r24, Z
     7f4:	91 81       	ldd	r25, Z+1	; 0x01
     7f6:	01 97       	sbiw	r24, 0x01	; 1
     7f8:	91 83       	std	Z+1, r25	; 0x01
     7fa:	80 83       	st	Z, r24
     7fc:	34 96       	adiw	r30, 0x04	; 4
     7fe:	80 81       	ld	r24, Z
     800:	91 81       	ldd	r25, Z+1	; 0x01
     802:	89 2b       	or	r24, r25
     804:	21 f4       	brne	.+8      	; 0x80e <_Z7OS_Initv+0x20a>
     806:	88 e0       	ldi	r24, 0x08	; 8
     808:	80 93 00 02 	sts	0x0200, r24
     80c:	da dd       	rcall	.-1100   	; 0x3c2 <OS_Abort>
     80e:	80 91 c6 02 	lds	r24, 0x02C6
     812:	90 91 c7 02 	lds	r25, 0x02C7
     816:	00 97       	sbiw	r24, 0x00	; 0
     818:	69 f0       	breq	.+26     	; 0x834 <_Z7OS_Initv+0x230>
     81a:	fc 01       	movw	r30, r24
     81c:	ee 5f       	subi	r30, 0xFE	; 254
     81e:	fe 4f       	sbci	r31, 0xFE	; 254
     820:	20 81       	ld	r18, Z
     822:	31 81       	ldd	r19, Z+1	; 0x01
     824:	21 50       	subi	r18, 0x01	; 1
     826:	31 09       	sbc	r19, r1
     828:	31 83       	std	Z+1, r19	; 0x01
     82a:	20 83       	st	Z, r18
     82c:	3e 96       	adiw	r30, 0x0e	; 14
     82e:	80 81       	ld	r24, Z
     830:	91 81       	ldd	r25, Z+1	; 0x01
     832:	f1 cf       	rjmp	.-30     	; 0x816 <_Z7OS_Initv+0x212>
     834:	41 30       	cpi	r20, 0x01	; 1
     836:	09 f0       	breq	.+2      	; 0x83a <_Z7OS_Initv+0x236>
     838:	a4 c0       	rjmp	.+328    	; 0x982 <_Z7OS_Initv+0x37e>
     83a:	f6 01       	movw	r30, r12
     83c:	e4 5f       	subi	r30, 0xF4	; 244
     83e:	fe 4f       	sbci	r31, 0xFE	; 254
     840:	80 81       	ld	r24, Z
     842:	81 30       	cpi	r24, 0x01	; 1
     844:	09 f0       	breq	.+2      	; 0x848 <_Z7OS_Initv+0x244>
     846:	9d c0       	rjmp	.+314    	; 0x982 <_Z7OS_Initv+0x37e>
     848:	f0 82       	st	Z, r15
     84a:	b6 01       	movw	r22, r12
     84c:	a7 c0       	rjmp	.+334    	; 0x99c <_Z7OS_Initv+0x398>
     84e:	29 83       	std	Y+1, r18	; 0x01
     850:	13 de       	rcall	.-986    	; 0x478 <_ZL18kernel_create_taskv>
     852:	90 93 d3 02 	sts	0x02D3, r25
     856:	80 93 d2 02 	sts	0x02D2, r24
     85a:	80 91 d2 02 	lds	r24, 0x02D2
     85e:	90 91 d3 02 	lds	r25, 0x02D3
     862:	29 81       	ldd	r18, Y+1	; 0x01
     864:	89 2b       	or	r24, r25
     866:	89 f0       	breq	.+34     	; 0x88a <_Z7OS_Initv+0x286>
     868:	60 91 9a 0c 	lds	r22, 0x0C9A
     86c:	70 91 9b 0c 	lds	r23, 0x0C9B
     870:	fb 01       	movw	r30, r22
     872:	e1 5f       	subi	r30, 0xF1	; 241
     874:	fe 4f       	sbci	r31, 0xFE	; 254
     876:	80 81       	ld	r24, Z
     878:	83 30       	cpi	r24, 0x03	; 3
     87a:	09 f4       	brne	.+2      	; 0x87e <_Z7OS_Initv+0x27a>
     87c:	82 c0       	rjmp	.+260    	; 0x982 <_Z7OS_Initv+0x37e>
     87e:	90 91 d8 02 	lds	r25, 0x02D8
     882:	93 30       	cpi	r25, 0x03	; 3
     884:	09 f0       	breq	.+2      	; 0x888 <_Z7OS_Initv+0x284>
     886:	80 c0       	rjmp	.+256    	; 0x988 <_Z7OS_Initv+0x384>
     888:	76 c0       	rjmp	.+236    	; 0x976 <_Z7OS_Initv+0x372>
     88a:	87 e0       	ldi	r24, 0x07	; 7
     88c:	bd cf       	rjmp	.-134    	; 0x808 <_Z7OS_Initv+0x204>
     88e:	f4 e8       	ldi	r31, 0x84	; 132
     890:	cf 16       	cp	r12, r31
     892:	fb e0       	ldi	r31, 0x0B	; 11
     894:	df 06       	cpc	r13, r31
     896:	09 f4       	brne	.+2      	; 0x89a <_Z7OS_Initv+0x296>
     898:	74 c0       	rjmp	.+232    	; 0x982 <_Z7OS_Initv+0x37e>
     89a:	f6 01       	movw	r30, r12
     89c:	e4 5f       	subi	r30, 0xF4	; 244
     89e:	fe 4f       	sbci	r31, 0xFE	; 254
     8a0:	10 82       	st	Z, r1
     8a2:	33 96       	adiw	r30, 0x03	; 3
     8a4:	80 81       	ld	r24, Z
     8a6:	82 30       	cpi	r24, 0x02	; 2
     8a8:	09 f0       	breq	.+2      	; 0x8ac <_Z7OS_Initv+0x2a8>
     8aa:	4a c0       	rjmp	.+148    	; 0x940 <_Z7OS_Initv+0x33c>
     8ac:	20 91 c6 02 	lds	r18, 0x02C6
     8b0:	30 91 c7 02 	lds	r19, 0x02C7
     8b4:	2c 15       	cp	r18, r12
     8b6:	3d 05       	cpc	r19, r13
     8b8:	69 f4       	brne	.+26     	; 0x8d4 <_Z7OS_Initv+0x2d0>
     8ba:	31 96       	adiw	r30, 0x01	; 1
     8bc:	80 81       	ld	r24, Z
     8be:	91 81       	ldd	r25, Z+1	; 0x01
     8c0:	00 97       	sbiw	r24, 0x00	; 0
     8c2:	41 f0       	breq	.+16     	; 0x8d4 <_Z7OS_Initv+0x2d0>
     8c4:	90 93 c7 02 	sts	0x02C7, r25
     8c8:	80 93 c6 02 	sts	0x02C6, r24
     8cc:	fc 01       	movw	r30, r24
     8ce:	ee 5e       	subi	r30, 0xEE	; 238
     8d0:	fe 4f       	sbci	r31, 0xFE	; 254
     8d2:	15 c0       	rjmp	.+42     	; 0x8fe <_Z7OS_Initv+0x2fa>
     8d4:	80 91 c8 02 	lds	r24, 0x02C8
     8d8:	90 91 c9 02 	lds	r25, 0x02C9
     8dc:	f6 01       	movw	r30, r12
     8de:	ee 5e       	subi	r30, 0xEE	; 238
     8e0:	fe 4f       	sbci	r31, 0xFE	; 254
     8e2:	8c 15       	cp	r24, r12
     8e4:	9d 05       	cpc	r25, r13
     8e6:	d1 f4       	brne	.+52     	; 0x91c <_Z7OS_Initv+0x318>
     8e8:	80 81       	ld	r24, Z
     8ea:	91 81       	ldd	r25, Z+1	; 0x01
     8ec:	00 97       	sbiw	r24, 0x00	; 0
     8ee:	51 f0       	breq	.+20     	; 0x904 <_Z7OS_Initv+0x300>
     8f0:	90 93 c9 02 	sts	0x02C9, r25
     8f4:	80 93 c8 02 	sts	0x02C8, r24
     8f8:	fc 01       	movw	r30, r24
     8fa:	e0 5f       	subi	r30, 0xF0	; 240
     8fc:	fe 4f       	sbci	r31, 0xFE	; 254
     8fe:	11 82       	std	Z+1, r1	; 0x01
     900:	10 82       	st	Z, r1
     902:	1e c0       	rjmp	.+60     	; 0x940 <_Z7OS_Initv+0x33c>
     904:	2c 15       	cp	r18, r12
     906:	3d 05       	cpc	r19, r13
     908:	49 f4       	brne	.+18     	; 0x91c <_Z7OS_Initv+0x318>
     90a:	10 92 c9 02 	sts	0x02C9, r1
     90e:	10 92 c8 02 	sts	0x02C8, r1
     912:	10 92 c7 02 	sts	0x02C7, r1
     916:	10 92 c6 02 	sts	0x02C6, r1
     91a:	12 c0       	rjmp	.+36     	; 0x940 <_Z7OS_Initv+0x33c>
     91c:	80 81       	ld	r24, Z
     91e:	91 81       	ldd	r25, Z+1	; 0x01
     920:	fc 01       	movw	r30, r24
     922:	e0 5f       	subi	r30, 0xF0	; 240
     924:	fe 4f       	sbci	r31, 0xFE	; 254
     926:	a0 81       	ld	r26, Z
     928:	b1 81       	ldd	r27, Z+1	; 0x01
     92a:	a0 5f       	subi	r26, 0xF0	; 240
     92c:	be 4f       	sbci	r27, 0xFE	; 254
     92e:	2d 91       	ld	r18, X+
     930:	3c 91       	ld	r19, X
     932:	31 83       	std	Z+1, r19	; 0x01
     934:	20 83       	st	Z, r18
     936:	f9 01       	movw	r30, r18
     938:	ee 5e       	subi	r30, 0xEE	; 238
     93a:	fe 4f       	sbci	r31, 0xFE	; 254
     93c:	91 83       	std	Z+1, r25	; 0x01
     93e:	80 83       	st	Z, r24
     940:	b6 01       	movw	r22, r12
     942:	8e ec       	ldi	r24, 0xCE	; 206
     944:	92 e0       	ldi	r25, 0x02	; 2
     946:	2c c0       	rjmp	.+88     	; 0x9a0 <_Z7OS_Initv+0x39c>
     948:	f6 01       	movw	r30, r12
     94a:	e1 5f       	subi	r30, 0xF1	; 241
     94c:	fe 4f       	sbci	r31, 0xFE	; 254
     94e:	80 81       	ld	r24, Z
     950:	81 30       	cpi	r24, 0x01	; 1
     952:	31 f0       	breq	.+12     	; 0x960 <_Z7OS_Initv+0x35c>
     954:	83 30       	cpi	r24, 0x03	; 3
     956:	41 f4       	brne	.+16     	; 0x968 <_Z7OS_Initv+0x364>
     958:	b6 01       	movw	r22, r12
     95a:	82 ec       	ldi	r24, 0xC2	; 194
     95c:	92 e0       	ldi	r25, 0x02	; 2
     95e:	03 c0       	rjmp	.+6      	; 0x966 <_Z7OS_Initv+0x362>
     960:	b6 01       	movw	r22, r12
     962:	8a ec       	ldi	r24, 0xCA	; 202
     964:	92 e0       	ldi	r25, 0x02	; 2
     966:	92 dc       	rcall	.-1756   	; 0x28c <_ZL7enqueueP7queue_tP9td_struct>
     968:	f6 01       	movw	r30, r12
     96a:	e4 5f       	subi	r30, 0xF4	; 244
     96c:	fe 4f       	sbci	r31, 0xFE	; 254
     96e:	f0 82       	st	Z, r15
     970:	08 c0       	rjmp	.+16     	; 0x982 <_Z7OS_Initv+0x37e>
     972:	8f ef       	ldi	r24, 0xFF	; 255
     974:	49 cf       	rjmp	.-366    	; 0x808 <_Z7OS_Initv+0x204>
     976:	fb 01       	movw	r30, r22
     978:	e4 5f       	subi	r30, 0xF4	; 244
     97a:	fe 4f       	sbci	r31, 0xFE	; 254
     97c:	20 83       	st	Z, r18
     97e:	81 30       	cpi	r24, 0x01	; 1
     980:	69 f0       	breq	.+26     	; 0x99c <_Z7OS_Initv+0x398>
     982:	10 92 e3 02 	sts	0x02E3, r1
     986:	9d ce       	rjmp	.-710    	; 0x6c2 <_Z7OS_Initv+0xbe>
     988:	81 30       	cpi	r24, 0x01	; 1
     98a:	d9 f7       	brne	.-10     	; 0x982 <_Z7OS_Initv+0x37e>
     98c:	80 91 d8 02 	lds	r24, 0x02D8
     990:	82 30       	cpi	r24, 0x02	; 2
     992:	b9 f7       	brne	.-18     	; 0x982 <_Z7OS_Initv+0x37e>
     994:	fb 01       	movw	r30, r22
     996:	e4 5f       	subi	r30, 0xF4	; 244
     998:	fe 4f       	sbci	r31, 0xFE	; 254
     99a:	80 83       	st	Z, r24
     99c:	8a ec       	ldi	r24, 0xCA	; 202
     99e:	92 e0       	ldi	r25, 0x02	; 2
     9a0:	75 dc       	rcall	.-1814   	; 0x28c <_ZL7enqueueP7queue_tP9td_struct>
     9a2:	ef cf       	rjmp	.-34     	; 0x982 <_Z7OS_Initv+0x37e>

000009a4 <Service_Init>:
     9a4:	9f b7       	in	r25, 0x3f	; 63
     9a6:	f8 94       	cli
     9a8:	80 91 21 02 	lds	r24, 0x0221
     9ac:	8a 30       	cpi	r24, 0x0A	; 10
     9ae:	a8 f4       	brcc	.+42     	; 0x9da <Service_Init+0x36>
     9b0:	20 e1       	ldi	r18, 0x10	; 16
     9b2:	82 9f       	mul	r24, r18
     9b4:	f0 01       	movw	r30, r0
     9b6:	11 24       	eor	r1, r1
     9b8:	ee 5d       	subi	r30, 0xDE	; 222
     9ba:	fd 4f       	sbci	r31, 0xFD	; 253
     9bc:	17 86       	std	Z+15, r1	; 0x0f
     9be:	16 86       	std	Z+14, r1	; 0x0e
     9c0:	8f 5f       	subi	r24, 0xFF	; 255
     9c2:	80 93 21 02 	sts	0x0221, r24
     9c6:	9f bf       	out	0x3f, r25	; 63
     9c8:	80 91 21 02 	lds	r24, 0x0221
     9cc:	20 e1       	ldi	r18, 0x10	; 16
     9ce:	82 9f       	mul	r24, r18
     9d0:	c0 01       	movw	r24, r0
     9d2:	11 24       	eor	r1, r1
     9d4:	8e 5e       	subi	r24, 0xEE	; 238
     9d6:	9d 4f       	sbci	r25, 0xFD	; 253
     9d8:	08 95       	ret
     9da:	8e e0       	ldi	r24, 0x0E	; 14
     9dc:	80 93 00 02 	sts	0x0200, r24
     9e0:	f0 dc       	rcall	.-1568   	; 0x3c2 <OS_Abort>

000009e2 <Service_Subscribe>:
     9e2:	cf 93       	push	r28
     9e4:	cf b7       	in	r28, 0x3f	; 63
     9e6:	f8 94       	cli
     9e8:	20 91 9a 0c 	lds	r18, 0x0C9A
     9ec:	30 91 9b 0c 	lds	r19, 0x0C9B
     9f0:	f9 01       	movw	r30, r18
     9f2:	e1 5f       	subi	r30, 0xF1	; 241
     9f4:	fe 4f       	sbci	r31, 0xFE	; 254
     9f6:	40 81       	ld	r20, Z
     9f8:	42 30       	cpi	r20, 0x02	; 2
     9fa:	11 f4       	brne	.+4      	; 0xa00 <Service_Subscribe+0x1e>
     9fc:	8d e0       	ldi	r24, 0x0D	; 13
     9fe:	1f c0       	rjmp	.+62     	; 0xa3e <Service_Subscribe+0x5c>
     a00:	fc 01       	movw	r30, r24
     a02:	46 85       	ldd	r20, Z+14	; 0x0e
     a04:	57 85       	ldd	r21, Z+15	; 0x0f
     a06:	43 30       	cpi	r20, 0x03	; 3
     a08:	51 05       	cpc	r21, r1
     a0a:	c4 f4       	brge	.+48     	; 0xa3c <Service_Subscribe+0x5a>
     a0c:	fa 01       	movw	r30, r20
     a0e:	ee 0f       	add	r30, r30
     a10:	ff 1f       	adc	r31, r31
     a12:	e8 0f       	add	r30, r24
     a14:	f9 1f       	adc	r31, r25
     a16:	31 83       	std	Z+1, r19	; 0x01
     a18:	20 83       	st	Z, r18
     a1a:	77 83       	std	Z+7, r23	; 0x07
     a1c:	66 83       	std	Z+6, r22	; 0x06
     a1e:	4f 5f       	subi	r20, 0xFF	; 255
     a20:	5f 4f       	sbci	r21, 0xFF	; 255
     a22:	fc 01       	movw	r30, r24
     a24:	57 87       	std	Z+15, r21	; 0x0f
     a26:	46 87       	std	Z+14, r20	; 0x0e
     a28:	f9 01       	movw	r30, r18
     a2a:	e4 5f       	subi	r30, 0xF4	; 244
     a2c:	fe 4f       	sbci	r31, 0xFE	; 254
     a2e:	83 e0       	ldi	r24, 0x03	; 3
     a30:	80 83       	st	Z, r24
     a32:	cf bf       	out	0x3f, r28	; 63
     a34:	d2 db       	rcall	.-2140   	; 0x1da <_ZL12enter_kernelv>
     a36:	cf bf       	out	0x3f, r28	; 63
     a38:	cf 91       	pop	r28
     a3a:	08 95       	ret
     a3c:	8c e0       	ldi	r24, 0x0C	; 12
     a3e:	80 93 00 02 	sts	0x0200, r24
     a42:	bf dc       	rcall	.-1666   	; 0x3c2 <OS_Abort>

00000a44 <Service_Publish>:
     a44:	af 92       	push	r10
     a46:	bf 92       	push	r11
     a48:	cf 92       	push	r12
     a4a:	df 92       	push	r13
     a4c:	ef 92       	push	r14
     a4e:	ff 92       	push	r15
     a50:	0f 93       	push	r16
     a52:	1f 93       	push	r17
     a54:	cf 93       	push	r28
     a56:	df 93       	push	r29
     a58:	ec 01       	movw	r28, r24
     a5a:	6b 01       	movw	r12, r22
     a5c:	af b6       	in	r10, 0x3f	; 63
     a5e:	f8 94       	cli
     a60:	7d 87       	std	Y+13, r23	; 0x0d
     a62:	6c 87       	std	Y+12, r22	; 0x0c
     a64:	7c 01       	movw	r14, r24
     a66:	00 e0       	ldi	r16, 0x00	; 0
     a68:	10 e0       	ldi	r17, 0x00	; 0
     a6a:	b2 e0       	ldi	r27, 0x02	; 2
     a6c:	bb 2e       	mov	r11, r27
     a6e:	8e 85       	ldd	r24, Y+14	; 0x0e
     a70:	9f 85       	ldd	r25, Y+15	; 0x0f
     a72:	08 17       	cp	r16, r24
     a74:	19 07       	cpc	r17, r25
     a76:	c4 f5       	brge	.+112    	; 0xae8 <Service_Publish+0xa4>
     a78:	d7 01       	movw	r26, r14
     a7a:	16 96       	adiw	r26, 0x06	; 6
     a7c:	ed 91       	ld	r30, X+
     a7e:	fc 91       	ld	r31, X
     a80:	17 97       	sbiw	r26, 0x07	; 7
     a82:	d1 82       	std	Z+1, r13	; 0x01
     a84:	c0 82       	st	Z, r12
     a86:	f7 01       	movw	r30, r14
     a88:	61 91       	ld	r22, Z+
     a8a:	71 91       	ld	r23, Z+
     a8c:	7f 01       	movw	r14, r30
     a8e:	fb 01       	movw	r30, r22
     a90:	e4 5f       	subi	r30, 0xF4	; 244
     a92:	fe 4f       	sbci	r31, 0xFE	; 254
     a94:	b0 82       	st	Z, r11
     a96:	33 96       	adiw	r30, 0x03	; 3
     a98:	80 81       	ld	r24, Z
     a9a:	83 30       	cpi	r24, 0x03	; 3
     a9c:	b9 f4       	brne	.+46     	; 0xacc <Service_Publish+0x88>
     a9e:	82 ec       	ldi	r24, 0xC2	; 194
     aa0:	92 e0       	ldi	r25, 0x02	; 2
     aa2:	f4 db       	rcall	.-2072   	; 0x28c <_ZL7enqueueP7queue_tP9td_struct>
     aa4:	60 91 9a 0c 	lds	r22, 0x0C9A
     aa8:	70 91 9b 0c 	lds	r23, 0x0C9B
     aac:	fb 01       	movw	r30, r22
     aae:	e1 5f       	subi	r30, 0xF1	; 241
     ab0:	fe 4f       	sbci	r31, 0xFE	; 254
     ab2:	80 81       	ld	r24, Z
     ab4:	81 30       	cpi	r24, 0x01	; 1
     ab6:	19 f4       	brne	.+6      	; 0xabe <Service_Publish+0x7a>
     ab8:	33 97       	sbiw	r30, 0x03	; 3
     aba:	b0 82       	st	Z, r11
     abc:	0f c0       	rjmp	.+30     	; 0xadc <Service_Publish+0x98>
     abe:	82 30       	cpi	r24, 0x02	; 2
     ac0:	81 f4       	brne	.+32     	; 0xae2 <Service_Publish+0x9e>
     ac2:	fb 01       	movw	r30, r22
     ac4:	e4 5f       	subi	r30, 0xF4	; 244
     ac6:	fe 4f       	sbci	r31, 0xFE	; 254
     ac8:	80 83       	st	Z, r24
     aca:	0b c0       	rjmp	.+22     	; 0xae2 <Service_Publish+0x9e>
     acc:	82 30       	cpi	r24, 0x02	; 2
     ace:	21 f4       	brne	.+8      	; 0xad8 <Service_Publish+0x94>
     ad0:	8a e0       	ldi	r24, 0x0A	; 10
     ad2:	80 93 00 02 	sts	0x0200, r24
     ad6:	75 dc       	rcall	.-1814   	; 0x3c2 <OS_Abort>
     ad8:	81 30       	cpi	r24, 0x01	; 1
     ada:	19 f4       	brne	.+6      	; 0xae2 <Service_Publish+0x9e>
     adc:	8a ec       	ldi	r24, 0xCA	; 202
     ade:	92 e0       	ldi	r25, 0x02	; 2
     ae0:	d5 db       	rcall	.-2134   	; 0x28c <_ZL7enqueueP7queue_tP9td_struct>
     ae2:	0f 5f       	subi	r16, 0xFF	; 255
     ae4:	1f 4f       	sbci	r17, 0xFF	; 255
     ae6:	c3 cf       	rjmp	.-122    	; 0xa6e <Service_Publish+0x2a>
     ae8:	1f 86       	std	Y+15, r1	; 0x0f
     aea:	1e 86       	std	Y+14, r1	; 0x0e
     aec:	76 db       	rcall	.-2324   	; 0x1da <_ZL12enter_kernelv>
     aee:	af be       	out	0x3f, r10	; 63
     af0:	df 91       	pop	r29
     af2:	cf 91       	pop	r28
     af4:	1f 91       	pop	r17
     af6:	0f 91       	pop	r16
     af8:	ff 90       	pop	r15
     afa:	ef 90       	pop	r14
     afc:	df 90       	pop	r13
     afe:	cf 90       	pop	r12
     b00:	bf 90       	pop	r11
     b02:	af 90       	pop	r10
     b04:	08 95       	ret

00000b06 <Task_Create_System>:
     b06:	cf 93       	push	r28
     b08:	cf b7       	in	r28, 0x3f	; 63
     b0a:	f8 94       	cli
     b0c:	90 93 d5 02 	sts	0x02D5, r25
     b10:	80 93 d4 02 	sts	0x02D4, r24
     b14:	70 93 d7 02 	sts	0x02D7, r23
     b18:	60 93 d6 02 	sts	0x02D6, r22
     b1c:	83 e0       	ldi	r24, 0x03	; 3
     b1e:	80 93 d8 02 	sts	0x02D8, r24
     b22:	82 e0       	ldi	r24, 0x02	; 2
     b24:	80 93 e3 02 	sts	0x02E3, r24
     b28:	58 db       	rcall	.-2384   	; 0x1da <_ZL12enter_kernelv>
     b2a:	80 91 d2 02 	lds	r24, 0x02D2
     b2e:	90 91 d3 02 	lds	r25, 0x02D3
     b32:	cf bf       	out	0x3f, r28	; 63
     b34:	cf 91       	pop	r28
     b36:	08 95       	ret

00000b38 <Task_Create_Periodic>:
     b38:	0f 93       	push	r16
     b3a:	1f 93       	push	r17
     b3c:	cf 93       	push	r28
     b3e:	cf b7       	in	r28, 0x3f	; 63
     b40:	f8 94       	cli
     b42:	90 93 d5 02 	sts	0x02D5, r25
     b46:	80 93 d4 02 	sts	0x02D4, r24
     b4a:	70 93 d7 02 	sts	0x02D7, r23
     b4e:	60 93 d6 02 	sts	0x02D6, r22
     b52:	82 e0       	ldi	r24, 0x02	; 2
     b54:	80 93 d8 02 	sts	0x02D8, r24
     b58:	50 93 de 02 	sts	0x02DE, r21
     b5c:	40 93 dd 02 	sts	0x02DD, r20
     b60:	30 93 e0 02 	sts	0x02E0, r19
     b64:	20 93 df 02 	sts	0x02DF, r18
     b68:	10 93 e2 02 	sts	0x02E2, r17
     b6c:	00 93 e1 02 	sts	0x02E1, r16
     b70:	10 93 da 02 	sts	0x02DA, r17
     b74:	00 93 d9 02 	sts	0x02D9, r16
     b78:	30 93 dc 02 	sts	0x02DC, r19
     b7c:	20 93 db 02 	sts	0x02DB, r18
     b80:	80 93 e3 02 	sts	0x02E3, r24
     b84:	2a db       	rcall	.-2476   	; 0x1da <_ZL12enter_kernelv>
     b86:	80 91 d2 02 	lds	r24, 0x02D2
     b8a:	90 91 d3 02 	lds	r25, 0x02D3
     b8e:	cf bf       	out	0x3f, r28	; 63
     b90:	cf 91       	pop	r28
     b92:	1f 91       	pop	r17
     b94:	0f 91       	pop	r16
     b96:	08 95       	ret

00000b98 <main>:
     b98:	35 dd       	rcall	.-1430   	; 0x604 <_Z7OS_Initv>

00000b9a <_Z1sv>:
#include "../trace/trace.h"

SERVICE* serviceTest;

void s()
{
     b9a:	cf 93       	push	r28
     b9c:	df 93       	push	r29
     b9e:	1f 92       	push	r1
     ba0:	1f 92       	push	r1
     ba2:	cd b7       	in	r28, 0x3d	; 61
     ba4:	de b7       	in	r29, 0x3e	; 62
	int16_t value = 1;
     ba6:	81 e0       	ldi	r24, 0x01	; 1
     ba8:	90 e0       	ldi	r25, 0x00	; 0
     baa:	9a 83       	std	Y+2, r25	; 0x02
     bac:	89 83       	std	Y+1, r24	; 0x01
	add_to_trace(value); //1
     bae:	ab d0       	rcall	.+342    	; 0xd06 <_Z12add_to_tracej>
	Service_Subscribe(serviceTest, &value);
     bb0:	be 01       	movw	r22, r28
     bb2:	6f 5f       	subi	r22, 0xFF	; 255
     bb4:	7f 4f       	sbci	r23, 0xFF	; 255
     bb6:	80 91 9c 0c 	lds	r24, 0x0C9C
     bba:	90 91 9d 0c 	lds	r25, 0x0C9D
     bbe:	11 df       	rcall	.-478    	; 0x9e2 <Service_Subscribe>
	add_to_trace(value); //5
     bc0:	89 81       	ldd	r24, Y+1	; 0x01
     bc2:	9a 81       	ldd	r25, Y+2	; 0x02
     bc4:	a0 d0       	rcall	.+320    	; 0xd06 <_Z12add_to_tracej>
}
     bc6:	0f 90       	pop	r0
     bc8:	0f 90       	pop	r0
     bca:	df 91       	pop	r29
     bcc:	cf 91       	pop	r28
     bce:	08 95       	ret

00000bd0 <_Z2rrv>:

void rr()
{
	int16_t value = 5;
	add_to_trace(2);
     bd0:	82 e0       	ldi	r24, 0x02	; 2
     bd2:	90 e0       	ldi	r25, 0x00	; 0
     bd4:	98 d0       	rcall	.+304    	; 0xd06 <_Z12add_to_tracej>
	Service_Publish(serviceTest, value);
     bd6:	65 e0       	ldi	r22, 0x05	; 5
     bd8:	70 e0       	ldi	r23, 0x00	; 0
     bda:	80 91 9c 0c 	lds	r24, 0x0C9C
     bde:	90 91 9d 0c 	lds	r25, 0x0C9D
     be2:	30 df       	rcall	.-416    	; 0xa44 <Service_Publish>
	add_to_trace(2);
     be4:	82 e0       	ldi	r24, 0x02	; 2
     be6:	90 e0       	ldi	r25, 0x00	; 0
     be8:	8e d0       	rcall	.+284    	; 0xd06 <_Z12add_to_tracej>
	print_trace();
     bea:	34 c0       	rjmp	.+104    	; 0xc54 <_Z11print_tracev>

00000bec <_Z6r_mainv>:
}

int r_main(void)
{
     bec:	0f 93       	push	r16
     bee:	1f 93       	push	r17
	serviceTest = Service_Init(); 
     bf0:	d9 de       	rcall	.-590    	; 0x9a4 <Service_Init>
     bf2:	90 93 9d 0c 	sts	0x0C9D, r25
     bf6:	80 93 9c 0c 	sts	0x0C9C, r24
	
	uart_init();
     bfa:	bc d0       	rcall	.+376    	; 0xd74 <_Z9uart_initv>
	set_trace_test(13);
     bfc:	8d e0       	ldi	r24, 0x0D	; 13
     bfe:	9f d0       	rcall	.+318    	; 0xd3e <_Z14set_trace_testh>
	add_to_trace(0);
     c00:	80 e0       	ldi	r24, 0x00	; 0
     c02:	90 e0       	ldi	r25, 0x00	; 0
     c04:	80 d0       	rcall	.+256    	; 0xd06 <_Z12add_to_tracej>
	Task_Create_System(s, 0);
     c06:	60 e0       	ldi	r22, 0x00	; 0
     c08:	70 e0       	ldi	r23, 0x00	; 0
     c0a:	8d ec       	ldi	r24, 0xCD	; 205
     c0c:	95 e0       	ldi	r25, 0x05	; 5
     c0e:	7b df       	rcall	.-266    	; 0xb06 <Task_Create_System>
	Task_Create_System(s, 0);
     c10:	60 e0       	ldi	r22, 0x00	; 0
     c12:	70 e0       	ldi	r23, 0x00	; 0
     c14:	8d ec       	ldi	r24, 0xCD	; 205
     c16:	95 e0       	ldi	r25, 0x05	; 5
     c18:	76 df       	rcall	.-276    	; 0xb06 <Task_Create_System>
	Task_Create_System(s, 0);
     c1a:	60 e0       	ldi	r22, 0x00	; 0
     c1c:	70 e0       	ldi	r23, 0x00	; 0
     c1e:	8d ec       	ldi	r24, 0xCD	; 205
     c20:	95 e0       	ldi	r25, 0x05	; 5
     c22:	71 df       	rcall	.-286    	; 0xb06 <Task_Create_System>
	Task_Create_System(s, 0); // OS_Abort(); with error.
     c24:	60 e0       	ldi	r22, 0x00	; 0
     c26:	70 e0       	ldi	r23, 0x00	; 0
     c28:	8d ec       	ldi	r24, 0xCD	; 205
     c2a:	95 e0       	ldi	r25, 0x05	; 5
     c2c:	6c df       	rcall	.-296    	; 0xb06 <Task_Create_System>
	Task_Create_Periodic(rr, 0, 20, 5, 5);
     c2e:	05 e0       	ldi	r16, 0x05	; 5
     c30:	10 e0       	ldi	r17, 0x00	; 0
     c32:	25 e0       	ldi	r18, 0x05	; 5
     c34:	30 e0       	ldi	r19, 0x00	; 0
     c36:	44 e1       	ldi	r20, 0x14	; 20
     c38:	50 e0       	ldi	r21, 0x00	; 0
     c3a:	60 e0       	ldi	r22, 0x00	; 0
     c3c:	70 e0       	ldi	r23, 0x00	; 0
     c3e:	88 ee       	ldi	r24, 0xE8	; 232
     c40:	95 e0       	ldi	r25, 0x05	; 5
     c42:	7a df       	rcall	.-268    	; 0xb38 <Task_Create_Periodic>

	add_to_trace(0);
     c44:	80 e0       	ldi	r24, 0x00	; 0
     c46:	90 e0       	ldi	r25, 0x00	; 0
     c48:	5e d0       	rcall	.+188    	; 0xd06 <_Z12add_to_tracej>
	return 1;
}
     c4a:	81 e0       	ldi	r24, 0x01	; 1
     c4c:	90 e0       	ldi	r25, 0x00	; 0
     c4e:	1f 91       	pop	r17
     c50:	0f 91       	pop	r16
     c52:	08 95       	ret

00000c54 <_Z11print_tracev>:
/**
 * Dump the entire trace array on UART
 * 
 */
void print_trace()
{
     c54:	cf 92       	push	r12
     c56:	df 92       	push	r13
     c58:	ef 92       	push	r14
     c5a:	ff 92       	push	r15
     c5c:	0f 93       	push	r16
     c5e:	1f 93       	push	r17
     c60:	cf 93       	push	r28
     c62:	df 93       	push	r29
    int returned_chars;
    
// 	if (!trace_printed)
// 	{
        /* the test header */
        returned_chars = sprintf((char*)&trace_buffer, "T%03d;", trace_number);
     c64:	80 91 c1 0e 	lds	r24, 0x0EC1
     c68:	1f 92       	push	r1
     c6a:	8f 93       	push	r24
     c6c:	81 e0       	ldi	r24, 0x01	; 1
     c6e:	92 e0       	ldi	r25, 0x02	; 2
     c70:	9f 93       	push	r25
     c72:	8f 93       	push	r24
     c74:	8e e9       	ldi	r24, 0x9E	; 158
     c76:	9c e0       	ldi	r25, 0x0C	; 12
     c78:	9f 93       	push	r25
     c7a:	8f 93       	push	r24
     c7c:	f0 d0       	rcall	.+480    	; 0xe5e <sprintf>
        uart_write((uint8_t*)trace_buffer, returned_chars);    
     c7e:	bc 01       	movw	r22, r24
     c80:	8e e9       	ldi	r24, 0x9E	; 158
     c82:	9c e0       	ldi	r25, 0x0C	; 12
     c84:	73 d0       	rcall	.+230    	; 0xd6c <_Z10uart_writePhi>
     c86:	c0 ec       	ldi	r28, 0xC0	; 192
     c88:	dc e0       	ldi	r29, 0x0C	; 12

        /* all traces as 5 digit padded decimals 
        for(i = 0; i < TRACE_ARRAY_SIZE; i++)*/
		for(i = 0; i < (int)trace_counter; i++)
     c8a:	0f 90       	pop	r0
     c8c:	0f 90       	pop	r0
     c8e:	0f 90       	pop	r0
     c90:	0f 90       	pop	r0
     c92:	0f 90       	pop	r0
     c94:	0f 90       	pop	r0
     c96:	00 e0       	ldi	r16, 0x00	; 0
     c98:	10 e0       	ldi	r17, 0x00	; 0
        {
            returned_chars = sprintf((char*)&trace_buffer, "%u;", trace_array[i]);
     c9a:	88 e0       	ldi	r24, 0x08	; 8
     c9c:	e8 2e       	mov	r14, r24
     c9e:	82 e0       	ldi	r24, 0x02	; 2
     ca0:	f8 2e       	mov	r15, r24
     ca2:	9e e9       	ldi	r25, 0x9E	; 158
     ca4:	c9 2e       	mov	r12, r25
     ca6:	9c e0       	ldi	r25, 0x0C	; 12
     ca8:	d9 2e       	mov	r13, r25
        returned_chars = sprintf((char*)&trace_buffer, "T%03d;", trace_number);
        uart_write((uint8_t*)trace_buffer, returned_chars);    

        /* all traces as 5 digit padded decimals 
        for(i = 0; i < TRACE_ARRAY_SIZE; i++)*/
		for(i = 0; i < (int)trace_counter; i++)
     caa:	80 91 be 0c 	lds	r24, 0x0CBE
     cae:	90 91 bf 0c 	lds	r25, 0x0CBF
     cb2:	08 17       	cp	r16, r24
     cb4:	19 07       	cpc	r17, r25
     cb6:	bc f4       	brge	.+46     	; 0xce6 <_Z11print_tracev+0x92>
        {
            returned_chars = sprintf((char*)&trace_buffer, "%u;", trace_array[i]);
     cb8:	88 81       	ld	r24, Y
     cba:	99 81       	ldd	r25, Y+1	; 0x01
     cbc:	22 96       	adiw	r28, 0x02	; 2
     cbe:	9f 93       	push	r25
     cc0:	8f 93       	push	r24
     cc2:	ff 92       	push	r15
     cc4:	ef 92       	push	r14
     cc6:	df 92       	push	r13
     cc8:	cf 92       	push	r12
     cca:	c9 d0       	rcall	.+402    	; 0xe5e <sprintf>
            uart_write((uint8_t*)trace_buffer, returned_chars);
     ccc:	bc 01       	movw	r22, r24
     cce:	8e e9       	ldi	r24, 0x9E	; 158
     cd0:	9c e0       	ldi	r25, 0x0C	; 12
     cd2:	4c d0       	rcall	.+152    	; 0xd6c <_Z10uart_writePhi>
        returned_chars = sprintf((char*)&trace_buffer, "T%03d;", trace_number);
        uart_write((uint8_t*)trace_buffer, returned_chars);    

        /* all traces as 5 digit padded decimals 
        for(i = 0; i < TRACE_ARRAY_SIZE; i++)*/
		for(i = 0; i < (int)trace_counter; i++)
     cd4:	0f 5f       	subi	r16, 0xFF	; 255
     cd6:	1f 4f       	sbci	r17, 0xFF	; 255
     cd8:	0f 90       	pop	r0
     cda:	0f 90       	pop	r0
     cdc:	0f 90       	pop	r0
     cde:	0f 90       	pop	r0
     ce0:	0f 90       	pop	r0
     ce2:	0f 90       	pop	r0
     ce4:	e2 cf       	rjmp	.-60     	; 0xcaa <_Z11print_tracev+0x56>
            returned_chars = sprintf((char*)&trace_buffer, "%u;", trace_array[i]);
            uart_write((uint8_t*)trace_buffer, returned_chars);
            //_delay_ms(1);
        }

        trace_printed = 1;
     ce6:	81 e0       	ldi	r24, 0x01	; 1
     ce8:	80 93 c0 0e 	sts	0x0EC0, r24
        trace_counter = 0;
     cec:	10 92 bf 0c 	sts	0x0CBF, r1
     cf0:	10 92 be 0c 	sts	0x0CBE, r1
//    }
}
     cf4:	df 91       	pop	r29
     cf6:	cf 91       	pop	r28
     cf8:	1f 91       	pop	r17
     cfa:	0f 91       	pop	r16
     cfc:	ff 90       	pop	r15
     cfe:	ef 90       	pop	r14
     d00:	df 90       	pop	r13
     d02:	cf 90       	pop	r12
     d04:	08 95       	ret

00000d06 <_Z12add_to_tracej>:
 * 
 * @param number unsigned integer to add
 */
void add_to_trace(uint16_t number)
{
    if (trace_counter < TRACE_ARRAY_SIZE)
     d06:	20 91 be 0c 	lds	r18, 0x0CBE
     d0a:	30 91 bf 0c 	lds	r19, 0x0CBF
     d0e:	2f 3f       	cpi	r18, 0xFF	; 255
     d10:	31 05       	cpc	r19, r1
     d12:	09 f0       	breq	.+2      	; 0xd16 <_Z12add_to_tracej+0x10>
     d14:	98 f4       	brcc	.+38     	; 0xd3c <_Z12add_to_tracej+0x36>
    {
        trace_array[trace_counter] = number;
     d16:	e0 91 be 0c 	lds	r30, 0x0CBE
     d1a:	f0 91 bf 0c 	lds	r31, 0x0CBF
     d1e:	ee 0f       	add	r30, r30
     d20:	ff 1f       	adc	r31, r31
     d22:	e0 54       	subi	r30, 0x40	; 64
     d24:	f3 4f       	sbci	r31, 0xF3	; 243
     d26:	91 83       	std	Z+1, r25	; 0x01
     d28:	80 83       	st	Z, r24
        trace_counter++;
     d2a:	80 91 be 0c 	lds	r24, 0x0CBE
     d2e:	90 91 bf 0c 	lds	r25, 0x0CBF
     d32:	01 96       	adiw	r24, 0x01	; 1
     d34:	90 93 bf 0c 	sts	0x0CBF, r25
     d38:	80 93 be 0c 	sts	0x0CBE, r24
     d3c:	08 95       	ret

00000d3e <_Z14set_trace_testh>:
 * 
 * @param number 
 */
void set_trace_test(uint8_t number)
{
    trace_number = number;
     d3e:	80 93 c1 0e 	sts	0x0EC1, r24
     d42:	08 95       	ret

00000d44 <_Z12uart_putcharc>:
	return rxn;
}

void uart_reset_recv(void)
{
	rxn = 0;
     d44:	f8 94       	cli
     d46:	90 91 c0 00 	lds	r25, 0x00C0
     d4a:	95 ff       	sbrs	r25, 5
     d4c:	fc cf       	rjmp	.-8      	; 0xd46 <_Z12uart_putcharc+0x2>
     d4e:	80 93 c6 00 	sts	0x00C6, r24
     d52:	78 94       	sei
     d54:	08 95       	ret

00000d56 <_Z11uart_putstrPc>:
     d56:	cf 93       	push	r28
     d58:	df 93       	push	r29
     d5a:	ec 01       	movw	r28, r24
     d5c:	89 91       	ld	r24, Y+
     d5e:	88 23       	and	r24, r24
     d60:	11 f0       	breq	.+4      	; 0xd66 <_Z11uart_putstrPc+0x10>
     d62:	f0 df       	rcall	.-32     	; 0xd44 <_Z12uart_putcharc>
     d64:	fb cf       	rjmp	.-10     	; 0xd5c <_Z11uart_putstrPc+0x6>
     d66:	df 91       	pop	r29
     d68:	cf 91       	pop	r28
     d6a:	08 95       	ret

00000d6c <_Z10uart_writePhi>:
     d6c:	f4 df       	rcall	.-24     	; 0xd56 <_Z11uart_putstrPc>
     d6e:	80 e0       	ldi	r24, 0x00	; 0
     d70:	90 e0       	ldi	r25, 0x00	; 0
     d72:	08 95       	ret

00000d74 <_Z9uart_initv>:
     d74:	10 92 28 0f 	sts	0x0F28, r1
     d78:	10 92 27 0f 	sts	0x0F27, r1
     d7c:	10 92 c2 0e 	sts	0x0EC2, r1
     d80:	10 92 c5 00 	sts	0x00C5, r1
     d84:	87 e6       	ldi	r24, 0x67	; 103
     d86:	80 93 c4 00 	sts	0x00C4, r24
     d8a:	88 e9       	ldi	r24, 0x98	; 152
     d8c:	80 93 c1 00 	sts	0x00C1, r24
     d90:	8e e0       	ldi	r24, 0x0E	; 14
     d92:	80 93 c2 00 	sts	0x00C2, r24
     d96:	08 95       	ret

00000d98 <__vector_25>:
/*
 Interrupt Service Routine (ISR):
*/

ISR(USART0_RX_vect)
{
     d98:	1f 92       	push	r1
     d9a:	0f 92       	push	r0
     d9c:	0f b6       	in	r0, 0x3f	; 63
     d9e:	0f 92       	push	r0
     da0:	11 24       	eor	r1, r1
     da2:	0b b6       	in	r0, 0x3b	; 59
     da4:	0f 92       	push	r0
     da6:	5f 93       	push	r21
     da8:	6f 93       	push	r22
     daa:	7f 93       	push	r23
     dac:	8f 93       	push	r24
     dae:	9f 93       	push	r25
     db0:	af 93       	push	r26
     db2:	bf 93       	push	r27
     db4:	ef 93       	push	r30
     db6:	ff 93       	push	r31
	while ( !(UCSR0A & (1<<RXC0)) );
     db8:	80 91 c0 00 	lds	r24, 0x00C0
     dbc:	87 ff       	sbrs	r24, 7
     dbe:	fc cf       	rjmp	.-8      	; 0xdb8 <__vector_25+0x20>

	//PORTB ^= _BV(PB7);

	rx[rxn] = UDR0;
     dc0:	e0 91 27 0f 	lds	r30, 0x0F27
     dc4:	f0 91 28 0f 	lds	r31, 0x0F28
     dc8:	80 91 c6 00 	lds	r24, 0x00C6
     dcc:	ed 53       	subi	r30, 0x3D	; 61
     dce:	f1 4f       	sbci	r31, 0xF1	; 241
     dd0:	80 83       	st	Z, r24
	rxn = (rxn + 1) % UART_BUFFER_SIZE;
     dd2:	80 91 27 0f 	lds	r24, 0x0F27
     dd6:	90 91 28 0f 	lds	r25, 0x0F28
     dda:	01 96       	adiw	r24, 0x01	; 1
     ddc:	64 e6       	ldi	r22, 0x64	; 100
     dde:	70 e0       	ldi	r23, 0x00	; 0
     de0:	2b d0       	rcall	.+86     	; 0xe38 <__divmodhi4>
     de2:	90 93 28 0f 	sts	0x0F28, r25
     de6:	80 93 27 0f 	sts	0x0F27, r24
	uart_rx = 1; // notify main of receipt of data.
     dea:	81 e0       	ldi	r24, 0x01	; 1
     dec:	80 93 c2 0e 	sts	0x0EC2, r24
	//PORTB = PORTB | _BV(PINB1);
     df0:	ff 91       	pop	r31
     df2:	ef 91       	pop	r30
     df4:	bf 91       	pop	r27
     df6:	af 91       	pop	r26
     df8:	9f 91       	pop	r25
     dfa:	8f 91       	pop	r24
     dfc:	7f 91       	pop	r23
     dfe:	6f 91       	pop	r22
     e00:	5f 91       	pop	r21
     e02:	0f 90       	pop	r0
     e04:	0b be       	out	0x3b, r0	; 59
     e06:	0f 90       	pop	r0
     e08:	0f be       	out	0x3f, r0	; 63
     e0a:	0f 90       	pop	r0
     e0c:	1f 90       	pop	r1
     e0e:	18 95       	reti

00000e10 <__udivmodhi4>:
     e10:	aa 1b       	sub	r26, r26
     e12:	bb 1b       	sub	r27, r27
     e14:	51 e1       	ldi	r21, 0x11	; 17
     e16:	07 c0       	rjmp	.+14     	; 0xe26 <__udivmodhi4_ep>

00000e18 <__udivmodhi4_loop>:
     e18:	aa 1f       	adc	r26, r26
     e1a:	bb 1f       	adc	r27, r27
     e1c:	a6 17       	cp	r26, r22
     e1e:	b7 07       	cpc	r27, r23
     e20:	10 f0       	brcs	.+4      	; 0xe26 <__udivmodhi4_ep>
     e22:	a6 1b       	sub	r26, r22
     e24:	b7 0b       	sbc	r27, r23

00000e26 <__udivmodhi4_ep>:
     e26:	88 1f       	adc	r24, r24
     e28:	99 1f       	adc	r25, r25
     e2a:	5a 95       	dec	r21
     e2c:	a9 f7       	brne	.-22     	; 0xe18 <__udivmodhi4_loop>
     e2e:	80 95       	com	r24
     e30:	90 95       	com	r25
     e32:	bc 01       	movw	r22, r24
     e34:	cd 01       	movw	r24, r26
     e36:	08 95       	ret

00000e38 <__divmodhi4>:
     e38:	97 fb       	bst	r25, 7
     e3a:	07 2e       	mov	r0, r23
     e3c:	16 f4       	brtc	.+4      	; 0xe42 <__divmodhi4+0xa>
     e3e:	00 94       	com	r0
     e40:	06 d0       	rcall	.+12     	; 0xe4e <__divmodhi4_neg1>
     e42:	77 fd       	sbrc	r23, 7
     e44:	08 d0       	rcall	.+16     	; 0xe56 <__divmodhi4_neg2>
     e46:	e4 df       	rcall	.-56     	; 0xe10 <__udivmodhi4>
     e48:	07 fc       	sbrc	r0, 7
     e4a:	05 d0       	rcall	.+10     	; 0xe56 <__divmodhi4_neg2>
     e4c:	3e f4       	brtc	.+14     	; 0xe5c <__divmodhi4_exit>

00000e4e <__divmodhi4_neg1>:
     e4e:	90 95       	com	r25
     e50:	81 95       	neg	r24
     e52:	9f 4f       	sbci	r25, 0xFF	; 255
     e54:	08 95       	ret

00000e56 <__divmodhi4_neg2>:
     e56:	70 95       	com	r23
     e58:	61 95       	neg	r22
     e5a:	7f 4f       	sbci	r23, 0xFF	; 255

00000e5c <__divmodhi4_exit>:
     e5c:	08 95       	ret

00000e5e <sprintf>:
     e5e:	0f 93       	push	r16
     e60:	1f 93       	push	r17
     e62:	cf 93       	push	r28
     e64:	df 93       	push	r29
     e66:	cd b7       	in	r28, 0x3d	; 61
     e68:	de b7       	in	r29, 0x3e	; 62
     e6a:	2e 97       	sbiw	r28, 0x0e	; 14
     e6c:	0f b6       	in	r0, 0x3f	; 63
     e6e:	f8 94       	cli
     e70:	de bf       	out	0x3e, r29	; 62
     e72:	0f be       	out	0x3f, r0	; 63
     e74:	cd bf       	out	0x3d, r28	; 61
     e76:	0e 89       	ldd	r16, Y+22	; 0x16
     e78:	1f 89       	ldd	r17, Y+23	; 0x17
     e7a:	86 e0       	ldi	r24, 0x06	; 6
     e7c:	8c 83       	std	Y+4, r24	; 0x04
     e7e:	1a 83       	std	Y+2, r17	; 0x02
     e80:	09 83       	std	Y+1, r16	; 0x01
     e82:	8f ef       	ldi	r24, 0xFF	; 255
     e84:	9f e7       	ldi	r25, 0x7F	; 127
     e86:	9e 83       	std	Y+6, r25	; 0x06
     e88:	8d 83       	std	Y+5, r24	; 0x05
     e8a:	ae 01       	movw	r20, r28
     e8c:	46 5e       	subi	r20, 0xE6	; 230
     e8e:	5f 4f       	sbci	r21, 0xFF	; 255
     e90:	68 8d       	ldd	r22, Y+24	; 0x18
     e92:	79 8d       	ldd	r23, Y+25	; 0x19
     e94:	ce 01       	movw	r24, r28
     e96:	01 96       	adiw	r24, 0x01	; 1
     e98:	10 d0       	rcall	.+32     	; 0xeba <vfprintf>
     e9a:	ef 81       	ldd	r30, Y+7	; 0x07
     e9c:	f8 85       	ldd	r31, Y+8	; 0x08
     e9e:	e0 0f       	add	r30, r16
     ea0:	f1 1f       	adc	r31, r17
     ea2:	10 82       	st	Z, r1
     ea4:	2e 96       	adiw	r28, 0x0e	; 14
     ea6:	0f b6       	in	r0, 0x3f	; 63
     ea8:	f8 94       	cli
     eaa:	de bf       	out	0x3e, r29	; 62
     eac:	0f be       	out	0x3f, r0	; 63
     eae:	cd bf       	out	0x3d, r28	; 61
     eb0:	df 91       	pop	r29
     eb2:	cf 91       	pop	r28
     eb4:	1f 91       	pop	r17
     eb6:	0f 91       	pop	r16
     eb8:	08 95       	ret

00000eba <vfprintf>:
     eba:	2f 92       	push	r2
     ebc:	3f 92       	push	r3
     ebe:	4f 92       	push	r4
     ec0:	5f 92       	push	r5
     ec2:	6f 92       	push	r6
     ec4:	7f 92       	push	r7
     ec6:	8f 92       	push	r8
     ec8:	9f 92       	push	r9
     eca:	af 92       	push	r10
     ecc:	bf 92       	push	r11
     ece:	cf 92       	push	r12
     ed0:	df 92       	push	r13
     ed2:	ef 92       	push	r14
     ed4:	ff 92       	push	r15
     ed6:	0f 93       	push	r16
     ed8:	1f 93       	push	r17
     eda:	cf 93       	push	r28
     edc:	df 93       	push	r29
     ede:	cd b7       	in	r28, 0x3d	; 61
     ee0:	de b7       	in	r29, 0x3e	; 62
     ee2:	2c 97       	sbiw	r28, 0x0c	; 12
     ee4:	0f b6       	in	r0, 0x3f	; 63
     ee6:	f8 94       	cli
     ee8:	de bf       	out	0x3e, r29	; 62
     eea:	0f be       	out	0x3f, r0	; 63
     eec:	cd bf       	out	0x3d, r28	; 61
     eee:	7c 01       	movw	r14, r24
     ef0:	6b 01       	movw	r12, r22
     ef2:	8a 01       	movw	r16, r20
     ef4:	fc 01       	movw	r30, r24
     ef6:	17 82       	std	Z+7, r1	; 0x07
     ef8:	16 82       	std	Z+6, r1	; 0x06
     efa:	83 81       	ldd	r24, Z+3	; 0x03
     efc:	81 ff       	sbrs	r24, 1
     efe:	b0 c1       	rjmp	.+864    	; 0x1260 <vfprintf+0x3a6>
     f00:	ce 01       	movw	r24, r28
     f02:	01 96       	adiw	r24, 0x01	; 1
     f04:	4c 01       	movw	r8, r24
     f06:	f7 01       	movw	r30, r14
     f08:	93 81       	ldd	r25, Z+3	; 0x03
     f0a:	f6 01       	movw	r30, r12
     f0c:	93 fd       	sbrc	r25, 3
     f0e:	85 91       	lpm	r24, Z+
     f10:	93 ff       	sbrs	r25, 3
     f12:	81 91       	ld	r24, Z+
     f14:	6f 01       	movw	r12, r30
     f16:	88 23       	and	r24, r24
     f18:	09 f4       	brne	.+2      	; 0xf1c <vfprintf+0x62>
     f1a:	9e c1       	rjmp	.+828    	; 0x1258 <vfprintf+0x39e>
     f1c:	85 32       	cpi	r24, 0x25	; 37
     f1e:	39 f4       	brne	.+14     	; 0xf2e <vfprintf+0x74>
     f20:	93 fd       	sbrc	r25, 3
     f22:	85 91       	lpm	r24, Z+
     f24:	93 ff       	sbrs	r25, 3
     f26:	81 91       	ld	r24, Z+
     f28:	6f 01       	movw	r12, r30
     f2a:	85 32       	cpi	r24, 0x25	; 37
     f2c:	21 f4       	brne	.+8      	; 0xf36 <vfprintf+0x7c>
     f2e:	b7 01       	movw	r22, r14
     f30:	90 e0       	ldi	r25, 0x00	; 0
     f32:	c7 d1       	rcall	.+910    	; 0x12c2 <fputc>
     f34:	e8 cf       	rjmp	.-48     	; 0xf06 <vfprintf+0x4c>
     f36:	51 2c       	mov	r5, r1
     f38:	31 2c       	mov	r3, r1
     f3a:	20 e0       	ldi	r18, 0x00	; 0
     f3c:	20 32       	cpi	r18, 0x20	; 32
     f3e:	a0 f4       	brcc	.+40     	; 0xf68 <vfprintf+0xae>
     f40:	8b 32       	cpi	r24, 0x2B	; 43
     f42:	69 f0       	breq	.+26     	; 0xf5e <vfprintf+0xa4>
     f44:	30 f4       	brcc	.+12     	; 0xf52 <vfprintf+0x98>
     f46:	80 32       	cpi	r24, 0x20	; 32
     f48:	59 f0       	breq	.+22     	; 0xf60 <vfprintf+0xa6>
     f4a:	83 32       	cpi	r24, 0x23	; 35
     f4c:	69 f4       	brne	.+26     	; 0xf68 <vfprintf+0xae>
     f4e:	20 61       	ori	r18, 0x10	; 16
     f50:	2c c0       	rjmp	.+88     	; 0xfaa <vfprintf+0xf0>
     f52:	8d 32       	cpi	r24, 0x2D	; 45
     f54:	39 f0       	breq	.+14     	; 0xf64 <vfprintf+0xaa>
     f56:	80 33       	cpi	r24, 0x30	; 48
     f58:	39 f4       	brne	.+14     	; 0xf68 <vfprintf+0xae>
     f5a:	21 60       	ori	r18, 0x01	; 1
     f5c:	26 c0       	rjmp	.+76     	; 0xfaa <vfprintf+0xf0>
     f5e:	22 60       	ori	r18, 0x02	; 2
     f60:	24 60       	ori	r18, 0x04	; 4
     f62:	23 c0       	rjmp	.+70     	; 0xfaa <vfprintf+0xf0>
     f64:	28 60       	ori	r18, 0x08	; 8
     f66:	21 c0       	rjmp	.+66     	; 0xfaa <vfprintf+0xf0>
     f68:	27 fd       	sbrc	r18, 7
     f6a:	27 c0       	rjmp	.+78     	; 0xfba <vfprintf+0x100>
     f6c:	30 ed       	ldi	r19, 0xD0	; 208
     f6e:	38 0f       	add	r19, r24
     f70:	3a 30       	cpi	r19, 0x0A	; 10
     f72:	78 f4       	brcc	.+30     	; 0xf92 <vfprintf+0xd8>
     f74:	26 ff       	sbrs	r18, 6
     f76:	06 c0       	rjmp	.+12     	; 0xf84 <vfprintf+0xca>
     f78:	fa e0       	ldi	r31, 0x0A	; 10
     f7a:	5f 9e       	mul	r5, r31
     f7c:	30 0d       	add	r19, r0
     f7e:	11 24       	eor	r1, r1
     f80:	53 2e       	mov	r5, r19
     f82:	13 c0       	rjmp	.+38     	; 0xfaa <vfprintf+0xf0>
     f84:	8a e0       	ldi	r24, 0x0A	; 10
     f86:	38 9e       	mul	r3, r24
     f88:	30 0d       	add	r19, r0
     f8a:	11 24       	eor	r1, r1
     f8c:	33 2e       	mov	r3, r19
     f8e:	20 62       	ori	r18, 0x20	; 32
     f90:	0c c0       	rjmp	.+24     	; 0xfaa <vfprintf+0xf0>
     f92:	8e 32       	cpi	r24, 0x2E	; 46
     f94:	21 f4       	brne	.+8      	; 0xf9e <vfprintf+0xe4>
     f96:	26 fd       	sbrc	r18, 6
     f98:	5f c1       	rjmp	.+702    	; 0x1258 <vfprintf+0x39e>
     f9a:	20 64       	ori	r18, 0x40	; 64
     f9c:	06 c0       	rjmp	.+12     	; 0xfaa <vfprintf+0xf0>
     f9e:	8c 36       	cpi	r24, 0x6C	; 108
     fa0:	11 f4       	brne	.+4      	; 0xfa6 <vfprintf+0xec>
     fa2:	20 68       	ori	r18, 0x80	; 128
     fa4:	02 c0       	rjmp	.+4      	; 0xfaa <vfprintf+0xf0>
     fa6:	88 36       	cpi	r24, 0x68	; 104
     fa8:	41 f4       	brne	.+16     	; 0xfba <vfprintf+0x100>
     faa:	f6 01       	movw	r30, r12
     fac:	93 fd       	sbrc	r25, 3
     fae:	85 91       	lpm	r24, Z+
     fb0:	93 ff       	sbrs	r25, 3
     fb2:	81 91       	ld	r24, Z+
     fb4:	6f 01       	movw	r12, r30
     fb6:	81 11       	cpse	r24, r1
     fb8:	c1 cf       	rjmp	.-126    	; 0xf3c <vfprintf+0x82>
     fba:	98 2f       	mov	r25, r24
     fbc:	9f 7d       	andi	r25, 0xDF	; 223
     fbe:	95 54       	subi	r25, 0x45	; 69
     fc0:	93 30       	cpi	r25, 0x03	; 3
     fc2:	28 f4       	brcc	.+10     	; 0xfce <vfprintf+0x114>
     fc4:	0c 5f       	subi	r16, 0xFC	; 252
     fc6:	1f 4f       	sbci	r17, 0xFF	; 255
     fc8:	ff e3       	ldi	r31, 0x3F	; 63
     fca:	f9 83       	std	Y+1, r31	; 0x01
     fcc:	0d c0       	rjmp	.+26     	; 0xfe8 <vfprintf+0x12e>
     fce:	83 36       	cpi	r24, 0x63	; 99
     fd0:	31 f0       	breq	.+12     	; 0xfde <vfprintf+0x124>
     fd2:	83 37       	cpi	r24, 0x73	; 115
     fd4:	71 f0       	breq	.+28     	; 0xff2 <vfprintf+0x138>
     fd6:	83 35       	cpi	r24, 0x53	; 83
     fd8:	09 f0       	breq	.+2      	; 0xfdc <vfprintf+0x122>
     fda:	57 c0       	rjmp	.+174    	; 0x108a <vfprintf+0x1d0>
     fdc:	21 c0       	rjmp	.+66     	; 0x1020 <vfprintf+0x166>
     fde:	f8 01       	movw	r30, r16
     fe0:	80 81       	ld	r24, Z
     fe2:	89 83       	std	Y+1, r24	; 0x01
     fe4:	0e 5f       	subi	r16, 0xFE	; 254
     fe6:	1f 4f       	sbci	r17, 0xFF	; 255
     fe8:	44 24       	eor	r4, r4
     fea:	43 94       	inc	r4
     fec:	51 2c       	mov	r5, r1
     fee:	54 01       	movw	r10, r8
     ff0:	14 c0       	rjmp	.+40     	; 0x101a <vfprintf+0x160>
     ff2:	38 01       	movw	r6, r16
     ff4:	f2 e0       	ldi	r31, 0x02	; 2
     ff6:	6f 0e       	add	r6, r31
     ff8:	71 1c       	adc	r7, r1
     ffa:	f8 01       	movw	r30, r16
     ffc:	a0 80       	ld	r10, Z
     ffe:	b1 80       	ldd	r11, Z+1	; 0x01
    1000:	26 ff       	sbrs	r18, 6
    1002:	03 c0       	rjmp	.+6      	; 0x100a <vfprintf+0x150>
    1004:	65 2d       	mov	r22, r5
    1006:	70 e0       	ldi	r23, 0x00	; 0
    1008:	02 c0       	rjmp	.+4      	; 0x100e <vfprintf+0x154>
    100a:	6f ef       	ldi	r22, 0xFF	; 255
    100c:	7f ef       	ldi	r23, 0xFF	; 255
    100e:	c5 01       	movw	r24, r10
    1010:	2c 87       	std	Y+12, r18	; 0x0c
    1012:	4c d1       	rcall	.+664    	; 0x12ac <strnlen>
    1014:	2c 01       	movw	r4, r24
    1016:	83 01       	movw	r16, r6
    1018:	2c 85       	ldd	r18, Y+12	; 0x0c
    101a:	2f 77       	andi	r18, 0x7F	; 127
    101c:	22 2e       	mov	r2, r18
    101e:	16 c0       	rjmp	.+44     	; 0x104c <vfprintf+0x192>
    1020:	38 01       	movw	r6, r16
    1022:	f2 e0       	ldi	r31, 0x02	; 2
    1024:	6f 0e       	add	r6, r31
    1026:	71 1c       	adc	r7, r1
    1028:	f8 01       	movw	r30, r16
    102a:	a0 80       	ld	r10, Z
    102c:	b1 80       	ldd	r11, Z+1	; 0x01
    102e:	26 ff       	sbrs	r18, 6
    1030:	03 c0       	rjmp	.+6      	; 0x1038 <vfprintf+0x17e>
    1032:	65 2d       	mov	r22, r5
    1034:	70 e0       	ldi	r23, 0x00	; 0
    1036:	02 c0       	rjmp	.+4      	; 0x103c <vfprintf+0x182>
    1038:	6f ef       	ldi	r22, 0xFF	; 255
    103a:	7f ef       	ldi	r23, 0xFF	; 255
    103c:	c5 01       	movw	r24, r10
    103e:	2c 87       	std	Y+12, r18	; 0x0c
    1040:	2a d1       	rcall	.+596    	; 0x1296 <strnlen_P>
    1042:	2c 01       	movw	r4, r24
    1044:	2c 85       	ldd	r18, Y+12	; 0x0c
    1046:	20 68       	ori	r18, 0x80	; 128
    1048:	22 2e       	mov	r2, r18
    104a:	83 01       	movw	r16, r6
    104c:	23 fc       	sbrc	r2, 3
    104e:	19 c0       	rjmp	.+50     	; 0x1082 <vfprintf+0x1c8>
    1050:	83 2d       	mov	r24, r3
    1052:	90 e0       	ldi	r25, 0x00	; 0
    1054:	48 16       	cp	r4, r24
    1056:	59 06       	cpc	r5, r25
    1058:	a0 f4       	brcc	.+40     	; 0x1082 <vfprintf+0x1c8>
    105a:	b7 01       	movw	r22, r14
    105c:	80 e2       	ldi	r24, 0x20	; 32
    105e:	90 e0       	ldi	r25, 0x00	; 0
    1060:	30 d1       	rcall	.+608    	; 0x12c2 <fputc>
    1062:	3a 94       	dec	r3
    1064:	f5 cf       	rjmp	.-22     	; 0x1050 <vfprintf+0x196>
    1066:	f5 01       	movw	r30, r10
    1068:	27 fc       	sbrc	r2, 7
    106a:	85 91       	lpm	r24, Z+
    106c:	27 fe       	sbrs	r2, 7
    106e:	81 91       	ld	r24, Z+
    1070:	5f 01       	movw	r10, r30
    1072:	b7 01       	movw	r22, r14
    1074:	90 e0       	ldi	r25, 0x00	; 0
    1076:	25 d1       	rcall	.+586    	; 0x12c2 <fputc>
    1078:	31 10       	cpse	r3, r1
    107a:	3a 94       	dec	r3
    107c:	f1 e0       	ldi	r31, 0x01	; 1
    107e:	4f 1a       	sub	r4, r31
    1080:	51 08       	sbc	r5, r1
    1082:	41 14       	cp	r4, r1
    1084:	51 04       	cpc	r5, r1
    1086:	79 f7       	brne	.-34     	; 0x1066 <vfprintf+0x1ac>
    1088:	de c0       	rjmp	.+444    	; 0x1246 <vfprintf+0x38c>
    108a:	84 36       	cpi	r24, 0x64	; 100
    108c:	11 f0       	breq	.+4      	; 0x1092 <vfprintf+0x1d8>
    108e:	89 36       	cpi	r24, 0x69	; 105
    1090:	31 f5       	brne	.+76     	; 0x10de <vfprintf+0x224>
    1092:	f8 01       	movw	r30, r16
    1094:	27 ff       	sbrs	r18, 7
    1096:	07 c0       	rjmp	.+14     	; 0x10a6 <vfprintf+0x1ec>
    1098:	60 81       	ld	r22, Z
    109a:	71 81       	ldd	r23, Z+1	; 0x01
    109c:	82 81       	ldd	r24, Z+2	; 0x02
    109e:	93 81       	ldd	r25, Z+3	; 0x03
    10a0:	0c 5f       	subi	r16, 0xFC	; 252
    10a2:	1f 4f       	sbci	r17, 0xFF	; 255
    10a4:	08 c0       	rjmp	.+16     	; 0x10b6 <vfprintf+0x1fc>
    10a6:	60 81       	ld	r22, Z
    10a8:	71 81       	ldd	r23, Z+1	; 0x01
    10aa:	88 27       	eor	r24, r24
    10ac:	77 fd       	sbrc	r23, 7
    10ae:	80 95       	com	r24
    10b0:	98 2f       	mov	r25, r24
    10b2:	0e 5f       	subi	r16, 0xFE	; 254
    10b4:	1f 4f       	sbci	r17, 0xFF	; 255
    10b6:	2f 76       	andi	r18, 0x6F	; 111
    10b8:	b2 2e       	mov	r11, r18
    10ba:	97 ff       	sbrs	r25, 7
    10bc:	09 c0       	rjmp	.+18     	; 0x10d0 <vfprintf+0x216>
    10be:	90 95       	com	r25
    10c0:	80 95       	com	r24
    10c2:	70 95       	com	r23
    10c4:	61 95       	neg	r22
    10c6:	7f 4f       	sbci	r23, 0xFF	; 255
    10c8:	8f 4f       	sbci	r24, 0xFF	; 255
    10ca:	9f 4f       	sbci	r25, 0xFF	; 255
    10cc:	20 68       	ori	r18, 0x80	; 128
    10ce:	b2 2e       	mov	r11, r18
    10d0:	2a e0       	ldi	r18, 0x0A	; 10
    10d2:	30 e0       	ldi	r19, 0x00	; 0
    10d4:	a4 01       	movw	r20, r8
    10d6:	27 d1       	rcall	.+590    	; 0x1326 <__ultoa_invert>
    10d8:	a8 2e       	mov	r10, r24
    10da:	a8 18       	sub	r10, r8
    10dc:	43 c0       	rjmp	.+134    	; 0x1164 <vfprintf+0x2aa>
    10de:	85 37       	cpi	r24, 0x75	; 117
    10e0:	29 f4       	brne	.+10     	; 0x10ec <vfprintf+0x232>
    10e2:	2f 7e       	andi	r18, 0xEF	; 239
    10e4:	b2 2e       	mov	r11, r18
    10e6:	2a e0       	ldi	r18, 0x0A	; 10
    10e8:	30 e0       	ldi	r19, 0x00	; 0
    10ea:	25 c0       	rjmp	.+74     	; 0x1136 <vfprintf+0x27c>
    10ec:	f2 2f       	mov	r31, r18
    10ee:	f9 7f       	andi	r31, 0xF9	; 249
    10f0:	bf 2e       	mov	r11, r31
    10f2:	8f 36       	cpi	r24, 0x6F	; 111
    10f4:	c1 f0       	breq	.+48     	; 0x1126 <vfprintf+0x26c>
    10f6:	18 f4       	brcc	.+6      	; 0x10fe <vfprintf+0x244>
    10f8:	88 35       	cpi	r24, 0x58	; 88
    10fa:	79 f0       	breq	.+30     	; 0x111a <vfprintf+0x260>
    10fc:	ad c0       	rjmp	.+346    	; 0x1258 <vfprintf+0x39e>
    10fe:	80 37       	cpi	r24, 0x70	; 112
    1100:	19 f0       	breq	.+6      	; 0x1108 <vfprintf+0x24e>
    1102:	88 37       	cpi	r24, 0x78	; 120
    1104:	21 f0       	breq	.+8      	; 0x110e <vfprintf+0x254>
    1106:	a8 c0       	rjmp	.+336    	; 0x1258 <vfprintf+0x39e>
    1108:	2f 2f       	mov	r18, r31
    110a:	20 61       	ori	r18, 0x10	; 16
    110c:	b2 2e       	mov	r11, r18
    110e:	b4 fe       	sbrs	r11, 4
    1110:	0d c0       	rjmp	.+26     	; 0x112c <vfprintf+0x272>
    1112:	8b 2d       	mov	r24, r11
    1114:	84 60       	ori	r24, 0x04	; 4
    1116:	b8 2e       	mov	r11, r24
    1118:	09 c0       	rjmp	.+18     	; 0x112c <vfprintf+0x272>
    111a:	24 ff       	sbrs	r18, 4
    111c:	0a c0       	rjmp	.+20     	; 0x1132 <vfprintf+0x278>
    111e:	9f 2f       	mov	r25, r31
    1120:	96 60       	ori	r25, 0x06	; 6
    1122:	b9 2e       	mov	r11, r25
    1124:	06 c0       	rjmp	.+12     	; 0x1132 <vfprintf+0x278>
    1126:	28 e0       	ldi	r18, 0x08	; 8
    1128:	30 e0       	ldi	r19, 0x00	; 0
    112a:	05 c0       	rjmp	.+10     	; 0x1136 <vfprintf+0x27c>
    112c:	20 e1       	ldi	r18, 0x10	; 16
    112e:	30 e0       	ldi	r19, 0x00	; 0
    1130:	02 c0       	rjmp	.+4      	; 0x1136 <vfprintf+0x27c>
    1132:	20 e1       	ldi	r18, 0x10	; 16
    1134:	32 e0       	ldi	r19, 0x02	; 2
    1136:	f8 01       	movw	r30, r16
    1138:	b7 fe       	sbrs	r11, 7
    113a:	07 c0       	rjmp	.+14     	; 0x114a <vfprintf+0x290>
    113c:	60 81       	ld	r22, Z
    113e:	71 81       	ldd	r23, Z+1	; 0x01
    1140:	82 81       	ldd	r24, Z+2	; 0x02
    1142:	93 81       	ldd	r25, Z+3	; 0x03
    1144:	0c 5f       	subi	r16, 0xFC	; 252
    1146:	1f 4f       	sbci	r17, 0xFF	; 255
    1148:	06 c0       	rjmp	.+12     	; 0x1156 <vfprintf+0x29c>
    114a:	60 81       	ld	r22, Z
    114c:	71 81       	ldd	r23, Z+1	; 0x01
    114e:	80 e0       	ldi	r24, 0x00	; 0
    1150:	90 e0       	ldi	r25, 0x00	; 0
    1152:	0e 5f       	subi	r16, 0xFE	; 254
    1154:	1f 4f       	sbci	r17, 0xFF	; 255
    1156:	a4 01       	movw	r20, r8
    1158:	e6 d0       	rcall	.+460    	; 0x1326 <__ultoa_invert>
    115a:	a8 2e       	mov	r10, r24
    115c:	a8 18       	sub	r10, r8
    115e:	fb 2d       	mov	r31, r11
    1160:	ff 77       	andi	r31, 0x7F	; 127
    1162:	bf 2e       	mov	r11, r31
    1164:	b6 fe       	sbrs	r11, 6
    1166:	0b c0       	rjmp	.+22     	; 0x117e <vfprintf+0x2c4>
    1168:	2b 2d       	mov	r18, r11
    116a:	2e 7f       	andi	r18, 0xFE	; 254
    116c:	a5 14       	cp	r10, r5
    116e:	50 f4       	brcc	.+20     	; 0x1184 <vfprintf+0x2ca>
    1170:	b4 fe       	sbrs	r11, 4
    1172:	0a c0       	rjmp	.+20     	; 0x1188 <vfprintf+0x2ce>
    1174:	b2 fc       	sbrc	r11, 2
    1176:	08 c0       	rjmp	.+16     	; 0x1188 <vfprintf+0x2ce>
    1178:	2b 2d       	mov	r18, r11
    117a:	2e 7e       	andi	r18, 0xEE	; 238
    117c:	05 c0       	rjmp	.+10     	; 0x1188 <vfprintf+0x2ce>
    117e:	7a 2c       	mov	r7, r10
    1180:	2b 2d       	mov	r18, r11
    1182:	03 c0       	rjmp	.+6      	; 0x118a <vfprintf+0x2d0>
    1184:	7a 2c       	mov	r7, r10
    1186:	01 c0       	rjmp	.+2      	; 0x118a <vfprintf+0x2d0>
    1188:	75 2c       	mov	r7, r5
    118a:	24 ff       	sbrs	r18, 4
    118c:	0d c0       	rjmp	.+26     	; 0x11a8 <vfprintf+0x2ee>
    118e:	fe 01       	movw	r30, r28
    1190:	ea 0d       	add	r30, r10
    1192:	f1 1d       	adc	r31, r1
    1194:	80 81       	ld	r24, Z
    1196:	80 33       	cpi	r24, 0x30	; 48
    1198:	11 f4       	brne	.+4      	; 0x119e <vfprintf+0x2e4>
    119a:	29 7e       	andi	r18, 0xE9	; 233
    119c:	09 c0       	rjmp	.+18     	; 0x11b0 <vfprintf+0x2f6>
    119e:	22 ff       	sbrs	r18, 2
    11a0:	06 c0       	rjmp	.+12     	; 0x11ae <vfprintf+0x2f4>
    11a2:	73 94       	inc	r7
    11a4:	73 94       	inc	r7
    11a6:	04 c0       	rjmp	.+8      	; 0x11b0 <vfprintf+0x2f6>
    11a8:	82 2f       	mov	r24, r18
    11aa:	86 78       	andi	r24, 0x86	; 134
    11ac:	09 f0       	breq	.+2      	; 0x11b0 <vfprintf+0x2f6>
    11ae:	73 94       	inc	r7
    11b0:	23 fd       	sbrc	r18, 3
    11b2:	12 c0       	rjmp	.+36     	; 0x11d8 <vfprintf+0x31e>
    11b4:	20 ff       	sbrs	r18, 0
    11b6:	06 c0       	rjmp	.+12     	; 0x11c4 <vfprintf+0x30a>
    11b8:	5a 2c       	mov	r5, r10
    11ba:	73 14       	cp	r7, r3
    11bc:	18 f4       	brcc	.+6      	; 0x11c4 <vfprintf+0x30a>
    11be:	53 0c       	add	r5, r3
    11c0:	57 18       	sub	r5, r7
    11c2:	73 2c       	mov	r7, r3
    11c4:	73 14       	cp	r7, r3
    11c6:	60 f4       	brcc	.+24     	; 0x11e0 <vfprintf+0x326>
    11c8:	b7 01       	movw	r22, r14
    11ca:	80 e2       	ldi	r24, 0x20	; 32
    11cc:	90 e0       	ldi	r25, 0x00	; 0
    11ce:	2c 87       	std	Y+12, r18	; 0x0c
    11d0:	78 d0       	rcall	.+240    	; 0x12c2 <fputc>
    11d2:	73 94       	inc	r7
    11d4:	2c 85       	ldd	r18, Y+12	; 0x0c
    11d6:	f6 cf       	rjmp	.-20     	; 0x11c4 <vfprintf+0x30a>
    11d8:	73 14       	cp	r7, r3
    11da:	10 f4       	brcc	.+4      	; 0x11e0 <vfprintf+0x326>
    11dc:	37 18       	sub	r3, r7
    11de:	01 c0       	rjmp	.+2      	; 0x11e2 <vfprintf+0x328>
    11e0:	31 2c       	mov	r3, r1
    11e2:	24 ff       	sbrs	r18, 4
    11e4:	11 c0       	rjmp	.+34     	; 0x1208 <vfprintf+0x34e>
    11e6:	b7 01       	movw	r22, r14
    11e8:	80 e3       	ldi	r24, 0x30	; 48
    11ea:	90 e0       	ldi	r25, 0x00	; 0
    11ec:	2c 87       	std	Y+12, r18	; 0x0c
    11ee:	69 d0       	rcall	.+210    	; 0x12c2 <fputc>
    11f0:	2c 85       	ldd	r18, Y+12	; 0x0c
    11f2:	22 ff       	sbrs	r18, 2
    11f4:	16 c0       	rjmp	.+44     	; 0x1222 <vfprintf+0x368>
    11f6:	21 ff       	sbrs	r18, 1
    11f8:	03 c0       	rjmp	.+6      	; 0x1200 <vfprintf+0x346>
    11fa:	88 e5       	ldi	r24, 0x58	; 88
    11fc:	90 e0       	ldi	r25, 0x00	; 0
    11fe:	02 c0       	rjmp	.+4      	; 0x1204 <vfprintf+0x34a>
    1200:	88 e7       	ldi	r24, 0x78	; 120
    1202:	90 e0       	ldi	r25, 0x00	; 0
    1204:	b7 01       	movw	r22, r14
    1206:	0c c0       	rjmp	.+24     	; 0x1220 <vfprintf+0x366>
    1208:	82 2f       	mov	r24, r18
    120a:	86 78       	andi	r24, 0x86	; 134
    120c:	51 f0       	breq	.+20     	; 0x1222 <vfprintf+0x368>
    120e:	21 fd       	sbrc	r18, 1
    1210:	02 c0       	rjmp	.+4      	; 0x1216 <vfprintf+0x35c>
    1212:	80 e2       	ldi	r24, 0x20	; 32
    1214:	01 c0       	rjmp	.+2      	; 0x1218 <vfprintf+0x35e>
    1216:	8b e2       	ldi	r24, 0x2B	; 43
    1218:	27 fd       	sbrc	r18, 7
    121a:	8d e2       	ldi	r24, 0x2D	; 45
    121c:	b7 01       	movw	r22, r14
    121e:	90 e0       	ldi	r25, 0x00	; 0
    1220:	50 d0       	rcall	.+160    	; 0x12c2 <fputc>
    1222:	a5 14       	cp	r10, r5
    1224:	30 f4       	brcc	.+12     	; 0x1232 <vfprintf+0x378>
    1226:	b7 01       	movw	r22, r14
    1228:	80 e3       	ldi	r24, 0x30	; 48
    122a:	90 e0       	ldi	r25, 0x00	; 0
    122c:	4a d0       	rcall	.+148    	; 0x12c2 <fputc>
    122e:	5a 94       	dec	r5
    1230:	f8 cf       	rjmp	.-16     	; 0x1222 <vfprintf+0x368>
    1232:	aa 94       	dec	r10
    1234:	f4 01       	movw	r30, r8
    1236:	ea 0d       	add	r30, r10
    1238:	f1 1d       	adc	r31, r1
    123a:	80 81       	ld	r24, Z
    123c:	b7 01       	movw	r22, r14
    123e:	90 e0       	ldi	r25, 0x00	; 0
    1240:	40 d0       	rcall	.+128    	; 0x12c2 <fputc>
    1242:	a1 10       	cpse	r10, r1
    1244:	f6 cf       	rjmp	.-20     	; 0x1232 <vfprintf+0x378>
    1246:	33 20       	and	r3, r3
    1248:	09 f4       	brne	.+2      	; 0x124c <vfprintf+0x392>
    124a:	5d ce       	rjmp	.-838    	; 0xf06 <vfprintf+0x4c>
    124c:	b7 01       	movw	r22, r14
    124e:	80 e2       	ldi	r24, 0x20	; 32
    1250:	90 e0       	ldi	r25, 0x00	; 0
    1252:	37 d0       	rcall	.+110    	; 0x12c2 <fputc>
    1254:	3a 94       	dec	r3
    1256:	f7 cf       	rjmp	.-18     	; 0x1246 <vfprintf+0x38c>
    1258:	f7 01       	movw	r30, r14
    125a:	86 81       	ldd	r24, Z+6	; 0x06
    125c:	97 81       	ldd	r25, Z+7	; 0x07
    125e:	02 c0       	rjmp	.+4      	; 0x1264 <vfprintf+0x3aa>
    1260:	8f ef       	ldi	r24, 0xFF	; 255
    1262:	9f ef       	ldi	r25, 0xFF	; 255
    1264:	2c 96       	adiw	r28, 0x0c	; 12
    1266:	0f b6       	in	r0, 0x3f	; 63
    1268:	f8 94       	cli
    126a:	de bf       	out	0x3e, r29	; 62
    126c:	0f be       	out	0x3f, r0	; 63
    126e:	cd bf       	out	0x3d, r28	; 61
    1270:	df 91       	pop	r29
    1272:	cf 91       	pop	r28
    1274:	1f 91       	pop	r17
    1276:	0f 91       	pop	r16
    1278:	ff 90       	pop	r15
    127a:	ef 90       	pop	r14
    127c:	df 90       	pop	r13
    127e:	cf 90       	pop	r12
    1280:	bf 90       	pop	r11
    1282:	af 90       	pop	r10
    1284:	9f 90       	pop	r9
    1286:	8f 90       	pop	r8
    1288:	7f 90       	pop	r7
    128a:	6f 90       	pop	r6
    128c:	5f 90       	pop	r5
    128e:	4f 90       	pop	r4
    1290:	3f 90       	pop	r3
    1292:	2f 90       	pop	r2
    1294:	08 95       	ret

00001296 <strnlen_P>:
    1296:	fc 01       	movw	r30, r24
    1298:	05 90       	lpm	r0, Z+
    129a:	61 50       	subi	r22, 0x01	; 1
    129c:	70 40       	sbci	r23, 0x00	; 0
    129e:	01 10       	cpse	r0, r1
    12a0:	d8 f7       	brcc	.-10     	; 0x1298 <strnlen_P+0x2>
    12a2:	80 95       	com	r24
    12a4:	90 95       	com	r25
    12a6:	8e 0f       	add	r24, r30
    12a8:	9f 1f       	adc	r25, r31
    12aa:	08 95       	ret

000012ac <strnlen>:
    12ac:	fc 01       	movw	r30, r24
    12ae:	61 50       	subi	r22, 0x01	; 1
    12b0:	70 40       	sbci	r23, 0x00	; 0
    12b2:	01 90       	ld	r0, Z+
    12b4:	01 10       	cpse	r0, r1
    12b6:	d8 f7       	brcc	.-10     	; 0x12ae <strnlen+0x2>
    12b8:	80 95       	com	r24
    12ba:	90 95       	com	r25
    12bc:	8e 0f       	add	r24, r30
    12be:	9f 1f       	adc	r25, r31
    12c0:	08 95       	ret

000012c2 <fputc>:
    12c2:	0f 93       	push	r16
    12c4:	1f 93       	push	r17
    12c6:	cf 93       	push	r28
    12c8:	df 93       	push	r29
    12ca:	18 2f       	mov	r17, r24
    12cc:	09 2f       	mov	r16, r25
    12ce:	eb 01       	movw	r28, r22
    12d0:	8b 81       	ldd	r24, Y+3	; 0x03
    12d2:	81 fd       	sbrc	r24, 1
    12d4:	03 c0       	rjmp	.+6      	; 0x12dc <fputc+0x1a>
    12d6:	8f ef       	ldi	r24, 0xFF	; 255
    12d8:	9f ef       	ldi	r25, 0xFF	; 255
    12da:	20 c0       	rjmp	.+64     	; 0x131c <fputc+0x5a>
    12dc:	82 ff       	sbrs	r24, 2
    12de:	10 c0       	rjmp	.+32     	; 0x1300 <fputc+0x3e>
    12e0:	4e 81       	ldd	r20, Y+6	; 0x06
    12e2:	5f 81       	ldd	r21, Y+7	; 0x07
    12e4:	2c 81       	ldd	r18, Y+4	; 0x04
    12e6:	3d 81       	ldd	r19, Y+5	; 0x05
    12e8:	42 17       	cp	r20, r18
    12ea:	53 07       	cpc	r21, r19
    12ec:	7c f4       	brge	.+30     	; 0x130c <fputc+0x4a>
    12ee:	e8 81       	ld	r30, Y
    12f0:	f9 81       	ldd	r31, Y+1	; 0x01
    12f2:	9f 01       	movw	r18, r30
    12f4:	2f 5f       	subi	r18, 0xFF	; 255
    12f6:	3f 4f       	sbci	r19, 0xFF	; 255
    12f8:	39 83       	std	Y+1, r19	; 0x01
    12fa:	28 83       	st	Y, r18
    12fc:	10 83       	st	Z, r17
    12fe:	06 c0       	rjmp	.+12     	; 0x130c <fputc+0x4a>
    1300:	e8 85       	ldd	r30, Y+8	; 0x08
    1302:	f9 85       	ldd	r31, Y+9	; 0x09
    1304:	81 2f       	mov	r24, r17
    1306:	19 95       	eicall
    1308:	89 2b       	or	r24, r25
    130a:	29 f7       	brne	.-54     	; 0x12d6 <fputc+0x14>
    130c:	2e 81       	ldd	r18, Y+6	; 0x06
    130e:	3f 81       	ldd	r19, Y+7	; 0x07
    1310:	2f 5f       	subi	r18, 0xFF	; 255
    1312:	3f 4f       	sbci	r19, 0xFF	; 255
    1314:	3f 83       	std	Y+7, r19	; 0x07
    1316:	2e 83       	std	Y+6, r18	; 0x06
    1318:	81 2f       	mov	r24, r17
    131a:	90 2f       	mov	r25, r16
    131c:	df 91       	pop	r29
    131e:	cf 91       	pop	r28
    1320:	1f 91       	pop	r17
    1322:	0f 91       	pop	r16
    1324:	08 95       	ret

00001326 <__ultoa_invert>:
    1326:	fa 01       	movw	r30, r20
    1328:	aa 27       	eor	r26, r26
    132a:	28 30       	cpi	r18, 0x08	; 8
    132c:	51 f1       	breq	.+84     	; 0x1382 <__ultoa_invert+0x5c>
    132e:	20 31       	cpi	r18, 0x10	; 16
    1330:	81 f1       	breq	.+96     	; 0x1392 <__ultoa_invert+0x6c>
    1332:	e8 94       	clt
    1334:	6f 93       	push	r22
    1336:	6e 7f       	andi	r22, 0xFE	; 254
    1338:	6e 5f       	subi	r22, 0xFE	; 254
    133a:	7f 4f       	sbci	r23, 0xFF	; 255
    133c:	8f 4f       	sbci	r24, 0xFF	; 255
    133e:	9f 4f       	sbci	r25, 0xFF	; 255
    1340:	af 4f       	sbci	r26, 0xFF	; 255
    1342:	b1 e0       	ldi	r27, 0x01	; 1
    1344:	3e d0       	rcall	.+124    	; 0x13c2 <__ultoa_invert+0x9c>
    1346:	b4 e0       	ldi	r27, 0x04	; 4
    1348:	3c d0       	rcall	.+120    	; 0x13c2 <__ultoa_invert+0x9c>
    134a:	67 0f       	add	r22, r23
    134c:	78 1f       	adc	r23, r24
    134e:	89 1f       	adc	r24, r25
    1350:	9a 1f       	adc	r25, r26
    1352:	a1 1d       	adc	r26, r1
    1354:	68 0f       	add	r22, r24
    1356:	79 1f       	adc	r23, r25
    1358:	8a 1f       	adc	r24, r26
    135a:	91 1d       	adc	r25, r1
    135c:	a1 1d       	adc	r26, r1
    135e:	6a 0f       	add	r22, r26
    1360:	71 1d       	adc	r23, r1
    1362:	81 1d       	adc	r24, r1
    1364:	91 1d       	adc	r25, r1
    1366:	a1 1d       	adc	r26, r1
    1368:	20 d0       	rcall	.+64     	; 0x13aa <__ultoa_invert+0x84>
    136a:	09 f4       	brne	.+2      	; 0x136e <__ultoa_invert+0x48>
    136c:	68 94       	set
    136e:	3f 91       	pop	r19
    1370:	2a e0       	ldi	r18, 0x0A	; 10
    1372:	26 9f       	mul	r18, r22
    1374:	11 24       	eor	r1, r1
    1376:	30 19       	sub	r19, r0
    1378:	30 5d       	subi	r19, 0xD0	; 208
    137a:	31 93       	st	Z+, r19
    137c:	de f6       	brtc	.-74     	; 0x1334 <__ultoa_invert+0xe>
    137e:	cf 01       	movw	r24, r30
    1380:	08 95       	ret
    1382:	46 2f       	mov	r20, r22
    1384:	47 70       	andi	r20, 0x07	; 7
    1386:	40 5d       	subi	r20, 0xD0	; 208
    1388:	41 93       	st	Z+, r20
    138a:	b3 e0       	ldi	r27, 0x03	; 3
    138c:	0f d0       	rcall	.+30     	; 0x13ac <__ultoa_invert+0x86>
    138e:	c9 f7       	brne	.-14     	; 0x1382 <__ultoa_invert+0x5c>
    1390:	f6 cf       	rjmp	.-20     	; 0x137e <__ultoa_invert+0x58>
    1392:	46 2f       	mov	r20, r22
    1394:	4f 70       	andi	r20, 0x0F	; 15
    1396:	40 5d       	subi	r20, 0xD0	; 208
    1398:	4a 33       	cpi	r20, 0x3A	; 58
    139a:	18 f0       	brcs	.+6      	; 0x13a2 <__ultoa_invert+0x7c>
    139c:	49 5d       	subi	r20, 0xD9	; 217
    139e:	31 fd       	sbrc	r19, 1
    13a0:	40 52       	subi	r20, 0x20	; 32
    13a2:	41 93       	st	Z+, r20
    13a4:	02 d0       	rcall	.+4      	; 0x13aa <__ultoa_invert+0x84>
    13a6:	a9 f7       	brne	.-22     	; 0x1392 <__ultoa_invert+0x6c>
    13a8:	ea cf       	rjmp	.-44     	; 0x137e <__ultoa_invert+0x58>
    13aa:	b4 e0       	ldi	r27, 0x04	; 4
    13ac:	a6 95       	lsr	r26
    13ae:	97 95       	ror	r25
    13b0:	87 95       	ror	r24
    13b2:	77 95       	ror	r23
    13b4:	67 95       	ror	r22
    13b6:	ba 95       	dec	r27
    13b8:	c9 f7       	brne	.-14     	; 0x13ac <__ultoa_invert+0x86>
    13ba:	00 97       	sbiw	r24, 0x00	; 0
    13bc:	61 05       	cpc	r22, r1
    13be:	71 05       	cpc	r23, r1
    13c0:	08 95       	ret
    13c2:	9b 01       	movw	r18, r22
    13c4:	ac 01       	movw	r20, r24
    13c6:	0a 2e       	mov	r0, r26
    13c8:	06 94       	lsr	r0
    13ca:	57 95       	ror	r21
    13cc:	47 95       	ror	r20
    13ce:	37 95       	ror	r19
    13d0:	27 95       	ror	r18
    13d2:	ba 95       	dec	r27
    13d4:	c9 f7       	brne	.-14     	; 0x13c8 <__ultoa_invert+0xa2>
    13d6:	62 0f       	add	r22, r18
    13d8:	73 1f       	adc	r23, r19
    13da:	84 1f       	adc	r24, r20
    13dc:	95 1f       	adc	r25, r21
    13de:	a0 1d       	adc	r26, r0
    13e0:	08 95       	ret

000013e2 <_exit>:
    13e2:	f8 94       	cli

000013e4 <__stop_program>:
    13e4:	ff cf       	rjmp	.-2      	; 0x13e4 <__stop_program>
