	.file	"radio.cpp"
__SP_H__ = 0x3e
__SP_L__ = 0x3d
__SREG__ = 0x3f
__RAMPZ__ = 0x3b
__tmp_reg__ = 0
__zero_reg__ = 1
	.text
.Ltext0:
	.cfi_sections	.debug_frame
	.section	.text._ZL10get_statusv,"ax",@progbits
	.type	_ZL10get_statusv, @function
_ZL10get_statusv:
.LFB11:
	.file 1 "../radio/radio.cpp"
	.loc 1 57 0
	.cfi_startproc
	push r28
.LCFI0:
	.cfi_def_cfa_offset 4
	.cfi_offset 28, -3
	push r29
.LCFI1:
	.cfi_def_cfa_offset 5
	.cfi_offset 29, -4
/* prologue: function */
/* frame size = 0 */
/* stack size = 2 */
.L__stack_usage = 2
.LVL0:
.LBB23:
	.loc 1 59 0
	ldi r28,lo8(2)
	ldi r29,lo8(1)
	ld r24,Y
	andi r24,lo8(-65)
	st Y,r24
	.loc 1 61 0
	ldi r24,lo8(-1)
	call _Z14SPI_Write_Byteh
.LVL1:
	.loc 1 63 0
	ld r25,Y
	ori r25,lo8(64)
	st Y,r25
/* epilogue start */
.LBE23:
	.loc 1 66 0
	pop r29
	pop r28
	ret
	.cfi_endproc
.LFE11:
	.size	_ZL10get_statusv, .-_ZL10get_statusv
	.section	.text._ZL12set_registerhPhh,"ax",@progbits
	.type	_ZL12set_registerhPhh, @function
_ZL12set_registerhPhh:
.LFB12:
	.loc 1 74 0
	.cfi_startproc
.LVL2:
	push r12
.LCFI2:
	.cfi_def_cfa_offset 4
	.cfi_offset 12, -3
	push r13
.LCFI3:
	.cfi_def_cfa_offset 5
	.cfi_offset 13, -4
	push r15
.LCFI4:
	.cfi_def_cfa_offset 6
	.cfi_offset 15, -5
	push r16
.LCFI5:
	.cfi_def_cfa_offset 7
	.cfi_offset 16, -6
	push r17
.LCFI6:
	.cfi_def_cfa_offset 8
	.cfi_offset 17, -7
	push r28
.LCFI7:
	.cfi_def_cfa_offset 9
	.cfi_offset 28, -8
	push r29
.LCFI8:
	.cfi_def_cfa_offset 10
	.cfi_offset 29, -9
	push __zero_reg__
.LCFI9:
	.cfi_def_cfa_offset 11
	in r28,__SP_L__
	in r29,__SP_H__
.LCFI10:
	.cfi_def_cfa_register 28
/* prologue: function */
/* frame size = 1 */
/* stack size = 8 */
.L__stack_usage = 8
	movw r16,r22
.LBB24:
	.loc 1 76 0
	ldi r25,lo8(2)
	mov r12,r25
	clr r13
	inc r13
	movw r30,r12
	ld r25,Z
	andi r25,lo8(-65)
	st Z,r25
	.loc 1 78 0
	andi r24,lo8(31)
.LVL3:
	ori r24,lo8(32)
	std Y+1,r20
	call _Z14SPI_Write_Byteh
.LVL4:
	mov r15,r24
.LVL5:
	.loc 1 79 0
	ldd r20,Y+1
	mov r22,r20
	movw r24,r16
	call _Z15SPI_Write_BlockPhh
.LVL6:
	.loc 1 81 0
	movw r30,r12
	ld r25,Z
	ori r25,lo8(64)
	st Z,r25
.LBE24:
	.loc 1 84 0
	mov r24,r15
/* epilogue start */
	pop __tmp_reg__
	pop r29
	pop r28
	pop r17
	pop r16
.LVL7:
	pop r15
.LVL8:
	pop r13
	pop r12
	ret
	.cfi_endproc
.LFE12:
	.size	_ZL12set_registerhPhh, .-_ZL12set_registerhPhh
	.section	.text._ZL16send_instructionhPhS_h,"ax",@progbits
	.type	_ZL16send_instructionhPhS_h, @function
_ZL16send_instructionhPhS_h:
.LFB14:
	.loc 1 120 0
	.cfi_startproc
.LVL9:
	push r14
.LCFI11:
	.cfi_def_cfa_offset 4
	.cfi_offset 14, -3
	push r15
.LCFI12:
	.cfi_def_cfa_offset 5
	.cfi_offset 15, -4
	push r16
.LCFI13:
	.cfi_def_cfa_offset 6
	.cfi_offset 16, -5
	push r17
.LCFI14:
	.cfi_def_cfa_offset 7
	.cfi_offset 17, -6
	push r28
.LCFI15:
	.cfi_def_cfa_offset 8
	.cfi_offset 28, -7
	push r29
.LCFI16:
	.cfi_def_cfa_offset 9
	.cfi_offset 29, -8
	push __zero_reg__
.LCFI17:
	.cfi_def_cfa_offset 10
	in r28,__SP_L__
	in r29,__SP_H__
.LCFI18:
	.cfi_def_cfa_register 28
/* prologue: function */
/* frame size = 1 */
/* stack size = 7 */
.L__stack_usage = 7
	movw r14,r22
	movw r16,r20
	.loc 1 121 0
	lds r25,258
	andi r25,lo8(-65)
	sts 258,r25
	.loc 1 123 0
	std Y+1,r18
	call _Z14SPI_Write_Byteh
.LVL10:
	.loc 1 125 0
	ldd r18,Y+1
	tst r18
	breq .L4
	.loc 1 127 0
	cp r16,__zero_reg__
	cpc r17,__zero_reg__
	brne .L5
	.loc 1 128 0
	mov r22,r18
	movw r24,r14
	call _Z15SPI_Write_BlockPhh
.LVL11:
	rjmp .L4
.L5:
	.loc 1 130 0
	mov r20,r18
	movw r22,r16
	movw r24,r14
	call _Z19SPI_ReadWrite_BlockPhS_h
.LVL12:
.L4:
	.loc 1 133 0
	lds r24,258
	ori r24,lo8(64)
	sts 258,r24
/* epilogue start */
	.loc 1 134 0
	pop __tmp_reg__
	pop r29
	pop r28
	pop r17
	pop r16
.LVL13:
	pop r15
	pop r14
.LVL14:
	ret
	.cfi_endproc
.LFE14:
	.size	_ZL16send_instructionhPhS_h, .-_ZL16send_instructionhPhS_h
	.section	.text._ZL19reset_pipe0_addressv,"ax",@progbits
	.type	_ZL19reset_pipe0_addressv, @function
_ZL19reset_pipe0_addressv:
.LFB17:
	.loc 1 178 0
	.cfi_startproc
/* prologue: function */
/* frame size = 0 */
/* stack size = 0 */
.L__stack_usage = 0
	.loc 1 179 0
	lds r24,_ZL14rx_pipe_widths
	tst r24
	breq .L10
.LBB27:
.LBB28:
	.loc 1 182 0
	ldi r20,lo8(5)
	ldi r22,lo8(_ZL16rx_pipe0_address)
	ldi r23,hi8(_ZL16rx_pipe0_address)
	ldi r24,lo8(10)
	jmp _ZL12set_registerhPhh
.LVL15:
.L10:
	ret
.LBE28:
.LBE27:
	.cfi_endproc
.LFE17:
	.size	_ZL19reset_pipe0_addressv, .-_ZL19reset_pipe0_addressv
	.section	.text._ZL12get_registerhPhh.constprop.1,"ax",@progbits
	.type	_ZL12get_registerhPhh.constprop.1, @function
_ZL12get_registerhPhh.constprop.1:
.LFB29:
	.loc 1 93 0
	.cfi_startproc
.LVL16:
	push r14
.LCFI19:
	.cfi_def_cfa_offset 4
	.cfi_offset 14, -3
	push r15
.LCFI20:
	.cfi_def_cfa_offset 5
	.cfi_offset 15, -4
	push r17
.LCFI21:
	.cfi_def_cfa_offset 6
	.cfi_offset 17, -5
	push r28
.LCFI22:
	.cfi_def_cfa_offset 7
	.cfi_offset 28, -6
	push r29
.LCFI23:
	.cfi_def_cfa_offset 8
	.cfi_offset 29, -7
	push __zero_reg__
	push __zero_reg__
.LCFI24:
	.cfi_def_cfa_offset 10
	in r28,__SP_L__
	in r29,__SP_H__
.LCFI25:
	.cfi_def_cfa_register 28
/* prologue: function */
/* frame size = 2 */
/* stack size = 7 */
.L__stack_usage = 7
.LVL17:
.LBB29:
	.loc 1 100 0
	ldi r25,lo8(-1)
	movw r30,r22
	st Z,r25
.LVL18:
	.loc 1 102 0
	ldi r18,lo8(2)
	mov r14,r18
	clr r15
	inc r15
	movw r30,r14
	ld r25,Z
	andi r25,lo8(-65)
	st Z,r25
	.loc 1 104 0
	andi r24,lo8(31)
.LVL19:
	std Y+1,r22
	std Y+2,r23
	call _Z14SPI_Write_Byteh
.LVL20:
	mov r17,r24
.LVL21:
	.loc 1 105 0
	ldi r20,lo8(1)
	ldd r22,Y+1
	ldd r23,Y+2
	ldi r24,0
	ldi r25,0
	call _Z19SPI_ReadWrite_BlockPhS_h
.LVL22:
	.loc 1 107 0
	movw r30,r14
	ld r25,Z
	ori r25,lo8(64)
	st Z,r25
.LBE29:
	.loc 1 110 0
	mov r24,r17
/* epilogue start */
	pop __tmp_reg__
	pop __tmp_reg__
	pop r29
	pop r28
	pop r17
.LVL23:
	pop r15
	pop r14
	ret
	.cfi_endproc
.LFE29:
	.size	_ZL12get_registerhPhh.constprop.1, .-_ZL12get_registerhPhh.constprop.1
	.section	.text._ZL11set_rx_modev,"ax",@progbits
	.type	_ZL11set_rx_modev, @function
_ZL11set_rx_modev:
.LFB15:
	.loc 1 140 0
	.cfi_startproc
	push r28
.LCFI26:
	.cfi_def_cfa_offset 4
	.cfi_offset 28, -3
	push r29
.LCFI27:
	.cfi_def_cfa_offset 5
	.cfi_offset 29, -4
	push __zero_reg__
.LCFI28:
	.cfi_def_cfa_offset 6
	in r28,__SP_L__
	in r29,__SP_H__
.LCFI29:
	.cfi_def_cfa_register 28
/* prologue: function */
/* frame size = 1 */
/* stack size = 3 */
.L__stack_usage = 3
.LBB30:
	.loc 1 142 0
	movw r22,r28
	subi r22,-1
	sbci r23,-1
	ldi r24,0
	call _ZL12get_registerhPhh.constprop.1
.LVL24:
	.loc 1 143 0
	ldd r24,Y+1
	sbrc r24,0
	rjmp .L13
	.loc 1 145 0
	ori r24,lo8(1)
	std Y+1,r24
	.loc 1 146 0
	ldi r20,lo8(1)
	movw r22,r28
	subi r22,-1
	sbci r23,-1
	ldi r24,0
	call _ZL12set_registerhPhh
.LVL25:
.LBB31:
.LBB32:
	.file 2 "c:\\program files (x86)\\atmel\\atmel toolchain\\avr8 gcc\\native\\3.4.1061\\avr8-gnu-toolchain\\avr\\include\\util\\delay.h"
	.loc 2 245 0
	ldi r24,lo8(259)
	ldi r25,hi8(259)
	1: sbiw r24,1
	brne 1b
	rjmp .
	nop
.LVL26:
.LBE32:
.LBE31:
.LBB33:
.LBB34:
	ldi r24,lo8(259)
	ldi r25,hi8(259)
	1: sbiw r24,1
	brne 1b
	rjmp .
	nop
.LVL27:
.L13:
/* epilogue start */
.LBE34:
.LBE33:
.LBE30:
	.loc 1 151 0
	pop __tmp_reg__
	pop r29
	pop r28
	ret
	.cfi_endproc
.LFE15:
	.size	_ZL11set_rx_modev, .-_ZL11set_rx_modev
	.section	.text._Z10Radio_Initv,"ax",@progbits
.global	_Z10Radio_Initv
	.type	_Z10Radio_Initv, @function
_Z10Radio_Initv:
.LFB19:
	.loc 1 229 0
	.cfi_startproc
	push r28
.LCFI30:
	.cfi_def_cfa_offset 4
	.cfi_offset 28, -3
	push r29
.LCFI31:
	.cfi_def_cfa_offset 5
	.cfi_offset 29, -4
	push __zero_reg__
.LCFI32:
	.cfi_def_cfa_offset 6
	in r28,__SP_L__
	in r29,__SP_H__
.LCFI33:
	.cfi_def_cfa_register 28
/* prologue: function */
/* frame size = 1 */
/* stack size = 3 */
.L__stack_usage = 3
	.loc 1 231 0
	sts _ZL13transmit_lock,__zero_reg__
	.loc 1 232 0
	ldi r30,lo8(1)
	ldi r31,lo8(1)
	ld r24,Z
	ori r24,lo8(24)
	st Z,r24
	.loc 1 233 0
	ldi r26,lo8(2)
	ldi r27,lo8(1)
	ld r24,X
	andi r24,lo8(-17)
	st X,r24
	.loc 1 234 0
	ld r24,X
	andi r24,lo8(-9)
	st X,r24
	.loc 1 239 0
	ld r24,X
	andi r24,lo8(-33)
	st X,r24
	.loc 1 242 0
	ld r24,Z
	ori r24,lo8(32)
	st Z,r24
	.loc 1 243 0
	ld r24,Z
	ori r24,lo8(64)
	st Z,r24
	.loc 1 246 0
	cbi 0xd,4
	.loc 1 247 0
	ldi r30,lo8(106)
	ldi r31,0
	ld r24,Z
	ori r24,lo8(2)
	st Z,r24
	.loc 1 248 0
	ld r24,Z
	andi r24,lo8(-2)
	st Z,r24
	.loc 1 249 0
	sbi 0x1d,4
	.loc 1 250 0
	sbi 0x1c,4
.LVL28:
.LBB42:
.LBB43:
	.loc 2 163 0
	ldi r24,lo8(-21537)
	ldi r25,hi8(-21537)
	1: sbiw r24,1
	brne 1b
	rjmp .
	nop
.LBE43:
.LBE42:
.LBB44:
.LBB45:
	.loc 1 195 0
	call _Z8SPI_Initv
.LVL29:
	.loc 1 198 0
	ldi r24,lo8(3)
	std Y+1,r24
	.loc 1 199 0
	ldi r20,lo8(1)
	movw r22,r28
	subi r22,-1
	sbci r23,-1
	call _ZL12set_registerhPhh
.LVL30:
	.loc 1 203 0
	ldi r24,lo8(21)
	std Y+1,r24
	.loc 1 205 0
	ldi r20,lo8(1)
	movw r22,r28
	subi r22,-1
	sbci r23,-1
	ldi r24,lo8(4)
	call _ZL12set_registerhPhh
.LVL31:
	.loc 1 208 0
	ldi r24,lo8(104)
	std Y+1,r24
	.loc 1 209 0
	ldi r20,lo8(1)
	movw r22,r28
	subi r22,-1
	sbci r23,-1
	ldi r24,lo8(5)
	call _ZL12set_registerhPhh
.LVL32:
	.loc 1 212 0
	ldi r24,lo8(9)
	std Y+1,r24
	.loc 1 213 0
	ldi r20,lo8(1)
	movw r22,r28
	subi r22,-1
	sbci r23,-1
	ldi r24,lo8(6)
	call _ZL12set_registerhPhh
.LVL33:
	.loc 1 216 0
	ldi r24,lo8(15)
	std Y+1,r24
	.loc 1 217 0
	ldi r20,lo8(1)
	movw r22,r28
	subi r22,-1
	sbci r23,-1
	ldi r24,0
	call _ZL12set_registerhPhh
.LVL34:
	.loc 1 220 0
	ldi r24,lo8(112)
	std Y+1,r24
	.loc 1 221 0
	ldi r20,lo8(1)
	movw r22,r28
	subi r22,-1
	sbci r23,-1
	ldi r24,lo8(7)
	call _ZL12set_registerhPhh
.LVL35:
	.loc 1 224 0
	ldi r18,0
	ldi r20,0
	ldi r21,0
	ldi r22,0
	ldi r23,0
	ldi r24,lo8(-31)
	call _ZL16send_instructionhPhS_h
.LVL36:
	.loc 1 225 0
	ldi r18,0
	ldi r20,0
	ldi r21,0
	ldi r22,0
	ldi r23,0
	ldi r24,lo8(-30)
	call _ZL16send_instructionhPhS_h
.LVL37:
.LBE45:
.LBE44:
.LBB46:
.LBB47:
	.loc 2 163 0
	ldi r24,lo8(7999)
	ldi r25,hi8(7999)
	1: sbiw r24,1
	brne 1b
	rjmp .
	nop
.LBE47:
.LBE46:
	.loc 1 263 0
	ldi r30,lo8(2)
	ldi r31,lo8(1)
	ld r24,Z
	ori r24,lo8(32)
	st Z,r24
	.loc 1 264 0
	ld r24,Z
	ori r24,lo8(16)
	st Z,r24
/* epilogue start */
	.loc 1 265 0
	pop __tmp_reg__
	pop r29
	pop r28
	ret
	.cfi_endproc
.LFE19:
	.size	_Z10Radio_Initv, .-_Z10Radio_Initv
	.section	.text._Z18Radio_Configure_Rx11_radio_pipePh3_ed,"ax",@progbits
.global	_Z18Radio_Configure_Rx11_radio_pipePh3_ed
	.type	_Z18Radio_Configure_Rx11_radio_pipePh3_ed, @function
_Z18Radio_Configure_Rx11_radio_pipePh3_ed:
.LFB20:
	.loc 1 274 0
	.cfi_startproc
.LVL38:
	push r13
.LCFI34:
	.cfi_def_cfa_offset 4
	.cfi_offset 13, -3
	push r14
.LCFI35:
	.cfi_def_cfa_offset 5
	.cfi_offset 14, -4
	push r15
.LCFI36:
	.cfi_def_cfa_offset 6
	.cfi_offset 15, -5
	push r16
.LCFI37:
	.cfi_def_cfa_offset 7
	.cfi_offset 16, -6
	push r17
.LCFI38:
	.cfi_def_cfa_offset 8
	.cfi_offset 17, -7
	push r28
.LCFI39:
	.cfi_def_cfa_offset 9
	.cfi_offset 28, -8
	push r29
.LCFI40:
	.cfi_def_cfa_offset 10
	.cfi_offset 29, -9
	push __zero_reg__
	push __zero_reg__
.LCFI41:
	.cfi_def_cfa_offset 12
	in r28,__SP_L__
	in r29,__SP_H__
.LCFI42:
	.cfi_def_cfa_register 28
/* prologue: function */
/* frame size = 2 */
/* stack size = 9 */
.L__stack_usage = 9
	mov r25,r24
	movw r30,r22
	mov r13,r20
.LVL39:
.LBB48:
	.loc 1 278 0
	cpi r24,lo8(6)
	brlo .+2
	rjmp .L16
	.loc 1 281 0
	cpse r24,__zero_reg__
	rjmp .L18
	.loc 1 283 0
	ld r24,Z
.LVL40:
	sts _ZL16rx_pipe0_address,r24
	.loc 1 284 0
	ldd r24,Z+1
	sts _ZL16rx_pipe0_address+1,r24
	.loc 1 285 0
	ldd r24,Z+2
	sts _ZL16rx_pipe0_address+2,r24
	.loc 1 286 0
	ldd r24,Z+3
	sts _ZL16rx_pipe0_address+3,r24
	.loc 1 287 0
	ldd r24,Z+4
	sts _ZL16rx_pipe0_address+4,r24
	rjmp .L24
.LVL41:
.L18:
	.loc 1 292 0
	cpi r24,lo8(1)
	breq .L24
	ldi r20,lo8(1)
.LVL42:
	rjmp .L19
.LVL43:
.L24:
	ldi r20,lo8(5)
.L19:
	.loc 1 292 0 is_stmt 0 discriminator 3
	movw r22,r30
.LVL44:
	ldi r24,lo8(10)
	add r24,r25
	std Y+2,r25
	call _ZL12set_registerhPhh
.LVL45:
	.loc 1 295 0 is_stmt 1 discriminator 3
	movw r22,r28
	subi r22,-1
	sbci r23,-1
	ldi r24,lo8(1)
	call _ZL12get_registerhPhh.constprop.1
.LVL46:
	.loc 1 297 0 discriminator 3
	ldd r25,Y+2
	mov r14,r25
	mov r15,__zero_reg__
	ldi r16,lo8(1)
	ldi r17,0
	rjmp 2f
	1:
	lsl r16
	2:
	dec r25
	brpl 1b
	ldd r24,Y+1
	or r24,r16
	std Y+1,r24
	.loc 1 300 0 discriminator 3
	ldi r20,lo8(1)
	movw r22,r28
	subi r22,-1
	sbci r23,-1
	ldi r24,lo8(1)
	call _ZL12set_registerhPhh
.LVL47:
	.loc 1 303 0 discriminator 3
	ldd r25,Y+2
	tst r13
	breq .L25
	.loc 1 303 0 is_stmt 0
	ldi r24,lo8(32)
	rjmp .L20
.L25:
	ldi r24,0
.L20:
	.loc 1 303 0 discriminator 3
	std Y+1,r24
	.loc 1 304 0 is_stmt 1 discriminator 3
	ldi r20,lo8(1)
	movw r22,r28
	subi r22,-1
	sbci r23,-1
	ldi r24,lo8(17)
	add r24,r25
	call _ZL12set_registerhPhh
.LVL48:
	.loc 1 305 0 discriminator 3
	ldd r24,Y+1
	movw r30,r14
	subi r30,lo8(-(_ZL14rx_pipe_widths))
	sbci r31,hi8(-(_ZL14rx_pipe_widths))
	st Z,r24
	.loc 1 308 0 discriminator 3
	movw r22,r28
	subi r22,-1
	sbci r23,-1
	ldi r24,lo8(2)
	call _ZL12get_registerhPhh.constprop.1
.LVL49:
	ldd r24,Y+1
	.loc 1 309 0 discriminator 3
	tst r13
	breq .L21
	.loc 1 310 0
	or r16,r24
	rjmp .L26
.L21:
	.loc 1 312 0
	com r16
	and r16,r24
.L26:
	std Y+1,r16
	.loc 1 313 0
	ldi r20,lo8(1)
	movw r22,r28
	subi r22,-1
	sbci r23,-1
	ldi r24,lo8(2)
	call _ZL12set_registerhPhh
.LVL50:
.L16:
/* epilogue start */
.LBE48:
	.loc 1 315 0
	pop __tmp_reg__
	pop __tmp_reg__
	pop r29
	pop r28
	pop r17
	pop r16
	pop r15
	pop r14
	pop r13
.LVL51:
	ret
	.cfi_endproc
.LFE20:
	.size	_Z18Radio_Configure_Rx11_radio_pipePh3_ed, .-_Z18Radio_Configure_Rx11_radio_pipePh3_ed
	.section	.text._Z17Radio_Set_Tx_AddrPh,"ax",@progbits
.global	_Z17Radio_Set_Tx_AddrPh
	.type	_Z17Radio_Set_Tx_AddrPh, @function
_Z17Radio_Set_Tx_AddrPh:
.LFB21:
	.loc 1 319 0
	.cfi_startproc
.LVL52:
/* prologue: function */
/* frame size = 0 */
/* stack size = 0 */
.L__stack_usage = 0
	movw r30,r24
	.loc 1 320 0
	ld r24,Z
.LVL53:
	sts _ZL10tx_address,r24
	.loc 1 321 0
	ldd r24,Z+1
	sts _ZL10tx_address+1,r24
	.loc 1 322 0
	ldd r24,Z+2
	sts _ZL10tx_address+2,r24
	.loc 1 323 0
	ldd r24,Z+3
	sts _ZL10tx_address+3,r24
	.loc 1 324 0
	ldd r24,Z+4
	sts _ZL10tx_address+4,r24
	.loc 1 325 0
	ldi r20,lo8(5)
	movw r22,r30
	ldi r24,lo8(16)
	jmp _ZL12set_registerhPhh
.LVL54:
	.cfi_endproc
.LFE21:
	.size	_Z17Radio_Set_Tx_AddrPh, .-_Z17Radio_Set_Tx_AddrPh
	.section	.text._Z15Radio_Configure9_radio_dr15_radio_tx_power,"ax",@progbits
.global	_Z15Radio_Configure9_radio_dr15_radio_tx_power
	.type	_Z15Radio_Configure9_radio_dr15_radio_tx_power, @function
_Z15Radio_Configure9_radio_dr15_radio_tx_power:
.LFB22:
	.loc 1 329 0
	.cfi_startproc
.LVL55:
	push r16
.LCFI43:
	.cfi_def_cfa_offset 4
	.cfi_offset 16, -3
	push r17
.LCFI44:
	.cfi_def_cfa_offset 5
	.cfi_offset 17, -4
	push r28
.LCFI45:
	.cfi_def_cfa_offset 6
	.cfi_offset 28, -5
	push r29
.LCFI46:
	.cfi_def_cfa_offset 7
	.cfi_offset 29, -6
	push __zero_reg__
.LCFI47:
	.cfi_def_cfa_offset 8
	in r28,__SP_L__
	in r29,__SP_H__
.LCFI48:
	.cfi_def_cfa_register 28
/* prologue: function */
/* frame size = 1 */
/* stack size = 5 */
.L__stack_usage = 5
	mov r17,r24
	mov r16,r22
.LBB49:
	.loc 1 332 0
	cpi r22,lo8(4)
	brsh .L28
	.loc 1 332 0 is_stmt 0 discriminator 2
	cpi r24,lo8(2)
	brsh .L28
	.loc 1 338 0 is_stmt 1
	movw r22,r28
.LVL56:
	subi r22,-1
	sbci r23,-1
	ldi r24,lo8(6)
.LVL57:
	call _ZL12get_registerhPhh.constprop.1
.LVL58:
	.loc 1 341 0
	mov r22,r16
	lsl r22
	.loc 1 340 0
	ldd r25,Y+1
	ori r25,lo8(6)
	.loc 1 341 0
	and r22,r25
	.loc 1 343 0
	cpse r17,__zero_reg__
	.loc 1 344 0
	ori r22,lo8(8)
.L33:
	std Y+1,r22
	.loc 1 348 0
	ldi r20,lo8(1)
	movw r22,r28
	subi r22,-1
	sbci r23,-1
	ldi r24,lo8(6)
	call _ZL12set_registerhPhh
.LVL59:
.L28:
/* epilogue start */
.LBE49:
	.loc 1 349 0
	pop __tmp_reg__
	pop r29
	pop r28
	pop r17
.LVL60:
	pop r16
.LVL61:
	ret
	.cfi_endproc
.LFE22:
	.size	_Z15Radio_Configure9_radio_dr15_radio_tx_power, .-_Z15Radio_Configure9_radio_dr15_radio_tx_power
	.section	.text._Z14Radio_TransmitP3_rp14_radio_tx_wait,"ax",@progbits
.global	_Z14Radio_TransmitP3_rp14_radio_tx_wait
	.type	_Z14Radio_TransmitP3_rp14_radio_tx_wait, @function
_Z14Radio_TransmitP3_rp14_radio_tx_wait:
.LFB23:
	.loc 1 352 0
	.cfi_startproc
.LVL62:
	push r15
.LCFI49:
	.cfi_def_cfa_offset 4
	.cfi_offset 15, -3
	push r16
.LCFI50:
	.cfi_def_cfa_offset 5
	.cfi_offset 16, -4
	push r17
.LCFI51:
	.cfi_def_cfa_offset 6
	.cfi_offset 17, -5
	push r28
.LCFI52:
	.cfi_def_cfa_offset 7
	.cfi_offset 28, -6
	push r29
.LCFI53:
	.cfi_def_cfa_offset 8
	.cfi_offset 29, -7
	push __zero_reg__
.LCFI54:
	.cfi_def_cfa_offset 9
	in r28,__SP_L__
	in r29,__SP_H__
.LCFI55:
	.cfi_def_cfa_register 28
/* prologue: function */
/* frame size = 1 */
/* stack size = 6 */
.L__stack_usage = 6
	movw r16,r24
	mov r15,r22
.LVL63:
.LBB58:
	.loc 1 358 0
	ldi r24,lo8(1)
.LVL64:
	sts _ZL13transmit_lock,r24
	.loc 1 360 0
	lds r24,258
	andi r24,lo8(-33)
	sts 258,r24
.LBB59:
.LBB60:
	.loc 1 159 0
	movw r22,r28
.LVL65:
	subi r22,-1
	sbci r23,-1
	ldi r24,0
	call _ZL12get_registerhPhh.constprop.1
.LVL66:
	.loc 1 160 0
	ldd r24,Y+1
	sbrs r24,0
	rjmp .L35
	.loc 1 162 0
	andi r24,lo8(-2)
	std Y+1,r24
	.loc 1 163 0
	ldi r20,lo8(1)
	movw r22,r28
	subi r22,-1
	sbci r23,-1
	ldi r24,0
	call _ZL12set_registerhPhh
.LVL67:
.LBB61:
.LBB62:
	.loc 2 245 0
	ldi r24,lo8(259)
	ldi r25,hi8(259)
	1: sbiw r24,1
	brne 1b
	rjmp .
	nop
.LVL68:
.LBE62:
.LBE61:
.LBB63:
.LBB64:
	ldi r24,lo8(259)
	ldi r25,hi8(259)
	1: sbiw r24,1
	brne 1b
	rjmp .
	nop
.LVL69:
.L35:
.LBE64:
.LBE63:
.LBE60:
.LBE59:
	.loc 1 366 0
	ldi r20,lo8(5)
	ldi r22,lo8(_ZL10tx_address)
	ldi r23,hi8(_ZL10tx_address)
	ldi r24,lo8(10)
	call _ZL12set_registerhPhh
.LVL70:
	.loc 1 369 0
	lds r24,258
	ori r24,lo8(8)
	sts 258,r24
	.loc 1 370 0
	ldi r18,lo8(32)
	ldi r20,0
	ldi r21,0
	movw r22,r16
	ldi r24,lo8(-96)
	call _ZL16send_instructionhPhS_h
.LVL71:
	.loc 1 372 0
	lds r24,258
	ori r24,lo8(32)
	sts 258,r24
	.loc 1 374 0
	cpse r15,__zero_reg__
	rjmp .L39
.L38:
	.loc 1 376 0
	lds r24,_ZL13transmit_lock
	cpse r24,__zero_reg__
	rjmp .L38
	.loc 1 377 0
	lds r24,_ZL14tx_last_status
	rjmp .L36
.L39:
	.loc 1 380 0
	ldi r24,lo8(1)
.L36:
/* epilogue start */
.LBE58:
	.loc 1 381 0
	pop __tmp_reg__
	pop r29
	pop r28
	pop r17
	pop r16
.LVL72:
	pop r15
.LVL73:
	ret
	.cfi_endproc
.LFE23:
	.size	_Z14Radio_TransmitP3_rp14_radio_tx_wait, .-_Z14Radio_TransmitP3_rp14_radio_tx_wait
	.section	.text._Z13Radio_ReceiveP3_rp,"ax",@progbits
.global	_Z13Radio_ReceiveP3_rp
	.type	_Z13Radio_ReceiveP3_rp, @function
_Z13Radio_ReceiveP3_rp:
.LFB24:
	.loc 1 384 0
	.cfi_startproc
.LVL74:
	push r28
.LCFI56:
	.cfi_def_cfa_offset 4
	.cfi_offset 28, -3
	push r29
.LCFI57:
	.cfi_def_cfa_offset 5
	.cfi_offset 29, -4
/* prologue: function */
/* frame size = 0 */
/* stack size = 2 */
.L__stack_usage = 2
	movw r28,r24
.LVL75:
.LBB65:
	.loc 1 391 0
	sts _ZL13transmit_lock,__zero_reg__
	.loc 1 393 0
	lds r24,258
.LVL76:
	andi r24,lo8(-33)
	sts 258,r24
	.loc 1 395 0
	call _ZL10get_statusv
.LVL77:
	.loc 1 396 0
	andi r24,lo8(14)
.LVL78:
	mov r18,r24
	ldi r19,0
	asr r19
	ror r18
.LVL79:
	.loc 1 404 0
	movw r30,r18
	subi r30,lo8(-(_ZL14rx_pipe_widths))
	sbci r31,hi8(-(_ZL14rx_pipe_widths))
	ld r24,Z
	cpi r24,lo8(33)
	brsh .L45
	.loc 1 411 0
	cpi r18,lo8(7)
	breq .L46
	.loc 1 414 0
	ld r18,Z
.LVL80:
	movw r20,r28
	movw r22,r28
	ldi r24,lo8(97)
	call _ZL16send_instructionhPhS_h
.LVL81:
	.loc 1 416 0
	call _ZL10get_statusv
.LVL82:
	.loc 1 417 0
	andi r24,lo8(14)
.LVL83:
	.loc 1 419 0
	cpi r24,lo8(14)
	breq .L47
	.loc 1 420 0
	ldi r24,lo8(3)
	rjmp .L44
.LVL84:
.L45:
	.loc 1 407 0
	ldi r24,0
	rjmp .L44
.L46:
	ldi r24,lo8(2)
	rjmp .L44
.LVL85:
.L47:
	.loc 1 422 0
	ldi r24,lo8(4)
.L44:
.LVL86:
	.loc 1 425 0
	lds r25,258
	ori r25,lo8(32)
	sts 258,r25
	.loc 1 427 0
	sts _ZL13transmit_lock,__zero_reg__
/* epilogue start */
.LBE65:
	.loc 1 432 0
	pop r29
	pop r28
.LVL87:
	ret
	.cfi_endproc
.LFE24:
	.size	_Z13Radio_ReceiveP3_rp, .-_Z13Radio_ReceiveP3_rp
	.section	.text._Z18Radio_Success_Ratev,"ax",@progbits
.global	_Z18Radio_Success_Ratev
	.type	_Z18Radio_Success_Ratev, @function
_Z18Radio_Success_Ratev:
.LFB25:
	.loc 1 436 0
	.cfi_startproc
/* prologue: function */
/* frame size = 0 */
/* stack size = 0 */
.L__stack_usage = 0
.LBB66:
	.loc 1 437 0
	lds r24,_ZL10tx_history
	lds r25,_ZL10tx_history+1
.LVL88:
	.loc 1 438 0
	ldi r20,0
.LVL89:
.L49:
	.loc 1 439 0 discriminator 1
	sbiw r24,0
	breq .L55
	.loc 1 441 0
	sbrc r24,0
	.loc 1 441 0 is_stmt 0 discriminator 1
	subi r20,lo8(-(1))
.LVL90:
.L50:
	.loc 1 442 0 is_stmt 1
	lsr r25
	ror r24
.LVL91:
	rjmp .L49
.L55:
	.loc 1 444 0
	ldi r18,lo8(16)
	ldi r19,0
	sub r18,r20
	sbc r19,__zero_reg__
	ldi r20,lo8(100)
.LVL92:
	mul r20,r18
	movw r24,r0
	mul r20,r19
	add r25,r0
	clr __zero_reg__
.LVL93:
	.loc 1 445 0
	ldi r21,4
	1:
	lsr r25
	ror r24
	dec r21
	brne 1b
.LVL94:
.LBE66:
	.loc 1 447 0
	ret
	.cfi_endproc
.LFE25:
	.size	_Z18Radio_Success_Ratev, .-_Z18Radio_Success_Ratev
	.section	.text._Z11Radio_Flushv,"ax",@progbits
.global	_Z11Radio_Flushv
	.type	_Z11Radio_Flushv, @function
_Z11Radio_Flushv:
.LFB26:
	.loc 1 450 0
	.cfi_startproc
/* prologue: function */
/* frame size = 0 */
/* stack size = 0 */
.L__stack_usage = 0
	.loc 1 451 0
	ldi r18,0
	ldi r20,0
	ldi r21,0
	ldi r22,0
	ldi r23,0
	ldi r24,lo8(-31)
	call _ZL16send_instructionhPhS_h
.LVL95:
	.loc 1 452 0
	ldi r18,0
	ldi r20,0
	ldi r21,0
	ldi r22,0
	ldi r23,0
	ldi r24,lo8(-30)
	jmp _ZL16send_instructionhPhS_h
.LVL96:
	.cfi_endproc
.LFE26:
	.size	_Z11Radio_Flushv, .-_Z11Radio_Flushv
	.section	.text.__vector_5,"ax",@progbits
.global	__vector_5
	.type	__vector_5, @function
__vector_5:
.LFB27:
	.loc 1 458 0
	.cfi_startproc
	push r1
.LCFI58:
	.cfi_def_cfa_offset 4
	.cfi_offset 1, -3
	push r0
.LCFI59:
	.cfi_def_cfa_offset 5
	.cfi_offset 0, -4
	in r0,__SREG__
	push r0
	clr __zero_reg__
	in r0,__RAMPZ__
	push r0
	push r18
.LCFI60:
	.cfi_def_cfa_offset 6
	.cfi_offset 18, -5
	push r19
.LCFI61:
	.cfi_def_cfa_offset 7
	.cfi_offset 19, -6
	push r20
.LCFI62:
	.cfi_def_cfa_offset 8
	.cfi_offset 20, -7
	push r21
.LCFI63:
	.cfi_def_cfa_offset 9
	.cfi_offset 21, -8
	push r22
.LCFI64:
	.cfi_def_cfa_offset 10
	.cfi_offset 22, -9
	push r23
.LCFI65:
	.cfi_def_cfa_offset 11
	.cfi_offset 23, -10
	push r24
.LCFI66:
	.cfi_def_cfa_offset 12
	.cfi_offset 24, -11
	push r25
.LCFI67:
	.cfi_def_cfa_offset 13
	.cfi_offset 25, -12
	push r26
.LCFI68:
	.cfi_def_cfa_offset 14
	.cfi_offset 26, -13
	push r27
.LCFI69:
	.cfi_def_cfa_offset 15
	.cfi_offset 27, -14
	push r30
.LCFI70:
	.cfi_def_cfa_offset 16
	.cfi_offset 30, -15
	push r31
.LCFI71:
	.cfi_def_cfa_offset 17
	.cfi_offset 31, -16
	push r28
.LCFI72:
	.cfi_def_cfa_offset 18
	.cfi_offset 28, -17
	push r29
.LCFI73:
	.cfi_def_cfa_offset 19
	.cfi_offset 29, -18
	push __zero_reg__
.LCFI74:
	.cfi_def_cfa_offset 20
	in r28,__SP_L__
	in r29,__SP_H__
.LCFI75:
	.cfi_def_cfa_register 28
/* prologue: Signal */
/* frame size = 1 */
/* stack size = 19 */
.L__stack_usage = 19
.LBB67:
	.loc 1 462 0
	lds r24,258
	andi r24,lo8(-17)
	sts 258,r24
	.loc 1 463 0
	lds r24,258
	andi r24,lo8(-33)
	sts 258,r24
	.loc 1 465 0
	call _ZL10get_statusv
.LVL97:
	std Y+1,r24
	.loc 1 467 0
	sbrs r24,6
	rjmp .L58
.LVL98:
	.loc 1 469 0
	andi r24,lo8(14)
.LVL99:
	.loc 1 470 0
	lsr r24
.LVL100:
	call _Z15radio_rxhandlerh
.LVL101:
.L58:
	.loc 1 473 0
	ldd r24,Y+1
	sbrs r24,5
	rjmp .L59
	.loc 1 476 0
	sts _ZL13transmit_lock,__zero_reg__
	.loc 1 477 0
	call _ZL19reset_pipe0_addressv
.LVL102:
	.loc 1 478 0
	call _ZL11set_rx_modev
.LVL103:
	.loc 1 481 0
	lds r24,_ZL10tx_history
	lds r25,_ZL10tx_history+1
	lsl r24
	rol r25
	sts _ZL10tx_history+1,r25
	sts _ZL10tx_history,r24
	.loc 1 482 0
	lds r24,_ZL10tx_history
	lds r25,_ZL10tx_history+1
	ori r24,1
	sts _ZL10tx_history+1,r25
	sts _ZL10tx_history,r24
	.loc 1 484 0
	ldi r24,lo8(1)
	sts _ZL14tx_last_status,r24
	rjmp .L60
.L59:
	.loc 1 486 0
	sbrs r24,4
	rjmp .L60
	.loc 1 488 0
	ldi r18,0
	ldi r20,0
	ldi r21,0
	ldi r22,0
	ldi r23,0
	ldi r24,lo8(-31)
	call _ZL16send_instructionhPhS_h
.LVL104:
	.loc 1 490 0
	sts _ZL13transmit_lock,__zero_reg__
	.loc 1 491 0
	call _ZL19reset_pipe0_addressv
.LVL105:
	.loc 1 492 0
	call _ZL11set_rx_modev
.LVL106:
	.loc 1 494 0
	lds r24,_ZL10tx_history
	lds r25,_ZL10tx_history+1
	lsl r24
	rol r25
	sts _ZL10tx_history+1,r25
	sts _ZL10tx_history,r24
	.loc 1 496 0
	sts _ZL14tx_last_status,__zero_reg__
.L60:
	.loc 1 500 0
	ldi r24,lo8(112)
	std Y+1,r24
	.loc 1 501 0
	ldi r20,lo8(1)
	movw r22,r28
	subi r22,-1
	sbci r23,-1
	ldi r24,lo8(7)
	call _ZL12set_registerhPhh
.LVL107:
	.loc 1 502 0
	lds r24,258
	ori r24,lo8(16)
	sts 258,r24
	.loc 1 504 0
	lds r24,258
	ori r24,lo8(32)
	sts 258,r24
/* epilogue start */
.LBE67:
	.loc 1 505 0
	pop __tmp_reg__
	pop r29
	pop r28
	pop r31
	pop r30
	pop r27
	pop r26
	pop r25
	pop r24
	pop r23
	pop r22
	pop r21
	pop r20
	pop r19
	pop r18
	pop r0
	out __RAMPZ__,r0
	pop r0
	out __SREG__,r0
	pop r0
	pop r1
	reti
	.cfi_endproc
.LFE27:
	.size	__vector_5, .-__vector_5
	.section	.data._ZL14tx_last_status,"aw",@progbits
	.type	_ZL14tx_last_status, @object
	.size	_ZL14tx_last_status, 1
_ZL14tx_last_status:
	.byte	1
	.section	.data._ZL10tx_history,"aw",@progbits
	.type	_ZL10tx_history, @object
	.size	_ZL10tx_history, 2
_ZL10tx_history:
	.word	255
	.section	.data._ZL16rx_pipe0_address,"aw",@progbits
	.type	_ZL16rx_pipe0_address, @object
	.size	_ZL16rx_pipe0_address, 5
_ZL16rx_pipe0_address:
	.byte	-25
	.byte	-25
	.byte	-25
	.byte	-25
	.byte	-25
	.section	.data._ZL10tx_address,"aw",@progbits
	.type	_ZL10tx_address, @object
	.size	_ZL10tx_address, 5
_ZL10tx_address:
	.byte	-25
	.byte	-25
	.byte	-25
	.byte	-25
	.byte	-25
	.section	.data._ZL14rx_pipe_widths,"aw",@progbits
	.type	_ZL14rx_pipe_widths, @object
	.size	_ZL14rx_pipe_widths, 6
_ZL14rx_pipe_widths:
	.byte	32
	.byte	32
	.byte	0
	.byte	0
	.byte	0
	.byte	0
	.section	.bss._ZL13transmit_lock,"aw",@nobits
	.type	_ZL13transmit_lock, @object
	.size	_ZL13transmit_lock, 1
_ZL13transmit_lock:
	.zero	1
	.text
.Letext0:
	.file 3 "c:\\program files (x86)\\atmel\\atmel toolchain\\avr8 gcc\\native\\3.4.1061\\avr8-gnu-toolchain\\avr\\include\\stdint.h"
	.file 4 "../radio/nRF24L01.h"
	.file 5 "../radio/cops_and_robbers.h"
	.file 6 "../radio/packet.h"
	.file 7 "../radio/radio.h"
	.file 8 "../radio/spi.h"