	.file	"scheduler.cpp"
__SP_H__ = 0x3e
__SP_L__ = 0x3d
__SREG__ = 0x3f
__RAMPZ__ = 0x3b
__tmp_reg__ = 0
__zero_reg__ = 1
	.text
.Ltext0:
	.cfi_sections	.debug_frame
	.section	.text._Z14Scheduler_Initv,"ax",@progbits
.global	_Z14Scheduler_Initv
	.type	_Z14Scheduler_Initv, @function
_Z14Scheduler_Initv:
.LFB90:
	.file 1 "../radio/scheduler.cpp"
	.loc 1 26 0
	.cfi_startproc
/* prologue: function */
/* frame size = 0 */
/* stack size = 0 */
.L__stack_usage = 0
	.loc 1 27 0
	call millis
.LVL0:
	sts last_runtime,r22
	sts last_runtime+1,r23
	sts last_runtime+2,r24
	sts last_runtime+3,r25
	ret
	.cfi_endproc
.LFE90:
	.size	_Z14Scheduler_Initv, .-_Z14Scheduler_Initv
	.section	.text._Z19Scheduler_StartTaskiiPFvvE,"ax",@progbits
.global	_Z19Scheduler_StartTaskiiPFvvE
	.type	_Z19Scheduler_StartTaskiiPFvvE, @function
_Z19Scheduler_StartTaskiiPFvvE:
.LFB91:
	.loc 1 31 0
	.cfi_startproc
.LVL1:
	push r16
.LCFI0:
	.cfi_def_cfa_offset 4
	.cfi_offset 16, -3
	push r17
.LCFI1:
	.cfi_def_cfa_offset 5
	.cfi_offset 17, -4
/* prologue: function */
/* frame size = 0 */
/* stack size = 2 */
.L__stack_usage = 2
	movw r16,r24
	movw r24,r22
.LVL2:
.LBB2:
	.loc 1 33 0
	lds r22,_ZZ19Scheduler_StartTaskiiPFvvEE2id
.LVL3:
	cpi r22,lo8(8)
	brsh .L2
	.loc 1 35 0
	ldi r18,lo8(11)
	mul r22,r18
	movw r30,r0
	clr __zero_reg__
	subi r30,lo8(-(tasks))
	sbci r31,hi8(-(tasks))
	clr r18
	sbrc r17,7
	com r18
	mov r19,r18
	std Z+4,r16
	std Z+5,r17
	std Z+6,r18
	std Z+7,r19
	.loc 1 36 0
	clr r26
	sbrc r25,7
	com r26
	mov r27,r26
	st Z,r24
	std Z+1,r25
	std Z+2,r26
	std Z+3,r27
	.loc 1 37 0
	ldi r24,lo8(1)
.LVL4:
	std Z+8,r24
	.loc 1 38 0
	std Z+10,r21
	std Z+9,r20
	.loc 1 39 0
	subi r22,lo8(-(1))
	sts _ZZ19Scheduler_StartTaskiiPFvvEE2id,r22
.LVL5:
.L2:
/* epilogue start */
.LBE2:
	.loc 1 41 0
	pop r17
	pop r16
	ret
	.cfi_endproc
.LFE91:
	.size	_Z19Scheduler_StartTaskiiPFvvE, .-_Z19Scheduler_StartTaskiiPFvvE
	.section	.text._Z18Scheduler_Dispatchv,"ax",@progbits
.global	_Z18Scheduler_Dispatchv
	.type	_Z18Scheduler_Dispatchv, @function
_Z18Scheduler_Dispatchv:
.LFB92:
	.loc 1 44 0
	.cfi_startproc
	push r6
.LCFI2:
	.cfi_def_cfa_offset 4
	.cfi_offset 6, -3
	push r7
.LCFI3:
	.cfi_def_cfa_offset 5
	.cfi_offset 7, -4
	push r8
.LCFI4:
	.cfi_def_cfa_offset 6
	.cfi_offset 8, -5
	push r9
.LCFI5:
	.cfi_def_cfa_offset 7
	.cfi_offset 9, -6
	push r10
.LCFI6:
	.cfi_def_cfa_offset 8
	.cfi_offset 10, -7
	push r11
.LCFI7:
	.cfi_def_cfa_offset 9
	.cfi_offset 11, -8
	push r12
.LCFI8:
	.cfi_def_cfa_offset 10
	.cfi_offset 12, -9
	push r13
.LCFI9:
	.cfi_def_cfa_offset 11
	.cfi_offset 13, -10
	push r14
.LCFI10:
	.cfi_def_cfa_offset 12
	.cfi_offset 14, -11
	push r15
.LCFI11:
	.cfi_def_cfa_offset 13
	.cfi_offset 15, -12
	push r16
.LCFI12:
	.cfi_def_cfa_offset 14
	.cfi_offset 16, -13
	push r17
.LCFI13:
	.cfi_def_cfa_offset 15
	.cfi_offset 17, -14
	push r28
.LCFI14:
	.cfi_def_cfa_offset 16
	.cfi_offset 28, -15
	push r29
.LCFI15:
	.cfi_def_cfa_offset 17
	.cfi_offset 29, -16
	rcall .
	push __zero_reg__
.LCFI16:
	.cfi_def_cfa_offset 21
	in r28,__SP_L__
	in r29,__SP_H__
.LCFI17:
	.cfi_def_cfa_register 28
/* prologue: function */
/* frame size = 4 */
/* stack size = 18 */
.L__stack_usage = 18
.LBB3:
	.loc 1 47 0
	call millis
.LVL6:
	.loc 1 48 0
	lds r12,last_runtime
	lds r13,last_runtime+1
	lds r14,last_runtime+2
	lds r15,last_runtime+3
	movw r8,r22
	movw r10,r24
	sub r8,r12
	sbc r9,r13
	sbc r10,r14
	sbc r11,r15
.LVL7:
	.loc 1 49 0
	sts last_runtime,r22
	sts last_runtime+1,r23
	sts last_runtime+2,r24
	sts last_runtime+3,r25
.LVL8:
	ldi r24,lo8(tasks+8)
	mov r6,r24
	ldi r24,hi8(tasks+8)
	mov r7,r24
	ldi r16,lo8(tasks)
	ldi r17,hi8(tasks)
	.loc 1 51 0
	ldi r22,lo8(-1)
	ldi r23,lo8(-1)
	movw r24,r22
.LVL9:
	.loc 1 50 0
	ldi r30,0
	ldi r31,0
.LVL10:
.L10:
	.loc 1 56 0
	movw r26,r6
	ld r18,X
	tst r18
	breq .L6
	.loc 1 59 0
	movw r26,r16
	adiw r26,4
	ld r12,X+
	ld r13,X+
	ld r14,X+
	ld r15,X
	sbiw r26,4+3
	sub r12,r8
	sbc r13,r9
	sbc r14,r10
	sbc r15,r11
	adiw r26,4
	st X+,r12
	st X+,r13
	st X+,r14
	st X,r15
	sbiw r26,4+3
	.loc 1 60 0
	cp __zero_reg__,r12
	cpc __zero_reg__,r13
	cpc __zero_reg__,r14
	cpc __zero_reg__,r15
	brlt .L7
	.loc 1 62 0
	sbiw r30,0
	brne .L12
	.loc 1 66 0
	adiw r26,9
	ld r30,X+
	ld r31,X
	sbiw r26,9+1
.LVL11:
	.loc 1 67 0
	ld r20,X+
	ld r21,X+
	ld r22,X+
	ld r23,X
	sbiw r26,3
	add r20,r12
	adc r21,r13
	adc r22,r14
	adc r23,r15
	adiw r26,4
	st X+,r20
	st X+,r21
	st X+,r22
	st X,r23
	sbiw r26,4+3
	rjmp .L12
.L7:
	cp r12,r22
	cpc r13,r23
	cpc r14,r24
	cpc r15,r25
	brsh .L6
	movw r24,r14
	movw r22,r12
.LVL12:
	rjmp .L6
.LVL13:
.L12:
	.loc 1 69 0
	ldi r22,0
	ldi r23,0
	movw r24,r22
.LVL14:
.L6:
	ldi r27,11
	add r6,r27
	adc r7,__zero_reg__
	subi r16,-11
	sbci r17,-1
	.loc 1 54 0
	ldi r18,hi8(tasks+88)
	cpi r16,lo8(tasks+88)
	cpc r17,r18
	breq .+2
	rjmp .L10
	.loc 1 77 0
	sbiw r30,0
	breq .L11
	.loc 1 80 0
	std Y+1,r22
	std Y+2,r23
	std Y+3,r24
	std Y+4,r25
	eicall
.LVL15:
	ldd r25,Y+4
	ldd r24,Y+3
	ldd r23,Y+2
	ldd r22,Y+1
.L11:
/* epilogue start */
.LBE3:
	.loc 1 83 0
	pop __tmp_reg__
	pop __tmp_reg__
	pop __tmp_reg__
	pop __tmp_reg__
	pop r29
	pop r28
	pop r17
	pop r16
	pop r15
	pop r14
	pop r13
	pop r12
	pop r11
	pop r10
	pop r9
	pop r8
.LVL16:
	pop r7
	pop r6
	ret
	.cfi_endproc
.LFE92:
	.size	_Z18Scheduler_Dispatchv, .-_Z18Scheduler_Dispatchv
	.section	.bss._ZZ19Scheduler_StartTaskiiPFvvEE2id,"aw",@nobits
	.type	_ZZ19Scheduler_StartTaskiiPFvvEE2id, @object
	.size	_ZZ19Scheduler_StartTaskiiPFvvEE2id, 1
_ZZ19Scheduler_StartTaskiiPFvvEE2id:
	.zero	1
.global	last_runtime
	.section	.bss.last_runtime,"aw",@nobits
	.type	last_runtime, @object
	.size	last_runtime, 4
last_runtime:
	.zero	4
.global	tasks
	.section	.bss.tasks,"aw",@nobits
	.type	tasks, @object
	.size	tasks, 88
tasks:
	.zero	88
	.text
.Letext0:
	.file 2 "c:\\program files (x86)\\atmel\\atmel toolchain\\avr8 gcc\\native\\3.4.1061\\avr8-gnu-toolchain\\avr\\include\\stdint.h"
	.file 3 "../radio/scheduler.h"
	.file 4 "C:\\Program Files (x86)\\Arduino\\hardware\\arduino\\variants\\standard/pins_arduino.h"
	.file 5 "C:\\Program Files (x86)\\Arduino\\hardware\\arduino\\cores\\arduino/Arduino.h"